(dp1
S'output'
p2
S"<type 'exceptions.ImportError'> cannot import name mail"
p3
sS'layer'
p4
S'C:\\Users\\Chris\\Documents\\web2py\\applications\\budz\\models\\db.py'
p5
sS'code'
p6
S'# -*- coding: utf-8 -*-\n\n#########################################################################\n## This scaffolding model makes your app work on Google App Engine too\n## File is released under public domain and you can use without limitations\n#########################################################################\n\n## if SSL/HTTPS is properly configured and you want all HTTP requests to\n## be redirected to HTTPS, uncomment the line below:\n# request.requires_https()\n\nif not request.env.web2py_runtime_gae:\n    ## if NOT running on Google App Engine use SQLite or other DB\n    db = DAL(\'sqlite://storage.sqlite\',pool_size=1,check_reserved=[\'all\'])\nelse:\n    ## connect to Google BigTable (optional \'google:datastore://namespace\')\n    db = DAL(\'google:datastore+ndb\')\n    ## store sessions and tickets there\n    session.connect(request, response, db=db)\n    ## or store session in Memcache, Redis, etc.\n    ## from gluon.contrib.memdb import MEMDB\n    ## from google.appengine.api.memcache import Client\n    ## session.connect(request, response, db = MEMDB(Client()))\n\n## by default give a view/generic.extension to all actions from localhost\n## none otherwise. a pattern can be \'controller/function.extension\'\nresponse.generic_patterns = [\'*\'] if request.is_local else []\n\n## (optional) optimize handling of static files\n# response.optimize_css = \'concat,minify,inline\'\n# response.optimize_js = \'concat,minify,inline\'\n## (optional) static assets folder versioning\n# response.static_version = \'0.0.0\'\n#########################################################################\n## Here is sample code if you need for\n## - email capabilities\n## - authentication (registration, login, logout, ... )\n## - authorization (role based authorization)\n## - services (xml, csv, json, xmlrpc, jsonrpc, amf, rss)\n## - old style crud actions\n## (more options discussed in gluon/tools.py)\n#########################################################################\n\nfrom gluon.tools import Auth, Crud, mail, os, Service, PluginManager\n\nauth = Auth(db)\ncrud = Crud(db)\nCATEGORY = [\'Math\', \'History\', \'Writing\', \'-please choose a subject-\']\nMAJOR = [\'Math\', \'History\', \'Writing\', \'-please choose a major-\']\nCOLLEGES = [\'College Eight\', \'College Nine\', \'College Ten\', \'Cowell College\', \n            \'Crown College\', \'Kresge College\', \'Merrill College\', \'Oakes College\', \'Porter College\', \'Stevenson College\', \'Unaffiliated\']\nGENDERS = [\'Male\', \'Female\', \'Other\']\nPRICERANGE = [\'Alternative Exchange\',1,2,3,4,5,6,7,8,9,10,15,20,25,30,35,40,45,50]\nYEAR = [\'Freshman\', \'Sophomores\', \'Junior\', \'Senior\', \'Grad-Student\', \'Alumni\']\n\nauth.settings.extra_fields[\'auth_user\']=[\n    Field(\'picture\', \'upload\'),\n    Field(\'name\', \'string\', readable = False),\n    Field(\'nice_name\', \'string\', readable = False),\n    Field(\'date_created\', \'datetime\'),\n    Field(\'bio\', \'text\', default=\'\'),\n    Field(\'bio2\', \'text\', default=\'\'),\n    Field(\'gender\',requires = IS_IN_SET(GENDERS), default = \'Other\'),\n    Field(\'college\', requires = IS_IN_SET(COLLEGES), default = \'Unaffiliated\'),\n    Field(\'student_status\', requires = IS_IN_SET(YEAR, zero = \'~Your level of education~\'), required = True),\n    Field(\'on_campus\', \'boolean\'),\n    Field(\'major\', label = \'Major 1\', requires = IS_IN_SET(CATEGORY, error_message="choose a major!", zero = "-please choose a Major-"), required = True),\n    Field(\'subject1\', label = \'Subject 1\', requires = IS_IN_SET(CATEGORY, error_message="choose a subject!", zero = "-please choose a subject-"), required = True),\n    Field(\'subject2\', label = \'Subject 2 (optional)\', requires = IS_IN_SET(CATEGORY, zero="-please choose a subject-"), required = False),\n    Field(\'subject3\', label = \'Subject 3 (optional)\', requires = IS_IN_SET(CATEGORY, zero = "-please choose a subject-"), required = False),\n\n    Field(\'price\', requires = IS_IN_SET(PRICERANGE), default = \'Alternative Exchange\' ), #per hour\n    Field(\'rating\', writable = False),\n    Field(\'tutorpost\',\'boolean\', writable = True, default = False),\n    Field(\'studentpost\',\'boolean\', writable = False, default = False)]\n\nservice = Service()\nplugins = PluginManager()\n\n## create all tables needed by auth if not custom tables\nauth.define_tables(username=False, signature=False)\n\n## configure email\nmail = auth.settings.mailer\nmail.settings.server = \'logging\' if request.is_local else \'smtp.gmail.com:587\'\nmail.settings.sender = \'you@gmail.com\'\nmail.settings.login = \'username:password\'\n\n## configure auth policy\nauth.settings.registration_requires_verification = False\nauth.settings.registration_requires_approval = False\nauth.settings.reset_password_requires_verification = True\n\n## if you need to use OpenID, Facebook, MySpace, Twitter, Linkedin, etc.\n## register with janrain.com, write your domain:api_key in private/janrain.key\nfrom gluon.contrib.login_methods.janrain_account import use_janrain\n#use_janrain(auth, filename=\'private/janrain.key\')\n\n#########################################################################\n## Define your tables below (or better in another model file) for example\n##\n## >>> db.define_table(\'mytable\',Field(\'myfield\',\'string\'))\n##\n## Fields can be \'string\',\'text\',\'password\',\'integer\',\'double\',\'boolean\'\n##       \'date\',\'time\',\'datetime\',\'blob\',\'upload\', \'reference TABLENAME\'\n## There is an implicit \'id integer autoincrement\' field\n## Consult manual for more options, validators, etc.\n##\n## More API examples for controllers:\n##\n## >>> db.mytable.insert(myfield=\'value\')\n## >>> rows=db(db.mytable.myfield==\'value\').select(db.mytable.ALL)\n## >>> for row in rows: print row.id, row.myfield\n#########################################################################\n\n## after defining tables, uncomment below to enable auditing\n# auth.enable_record_versioning(db)\n'
p7
sS'snapshot'
p8
(dp9
S'exception'
p10
(dp11
S'__hash__'
p12
S"<method-wrapper '__hash__' of exceptions.ImportError object>"
p13
sS'__setattr__'
p14
S"<method-wrapper '__setattr__' of exceptions.ImportError object>"
p15
sS'__reduce_ex__'
p16
S'<built-in method __reduce_ex__ of exceptions.ImportError object>'
p17
sS'__getslice__'
p18
S"<method-wrapper '__getslice__' of exceptions.ImportError object>"
p19
sS'__getitem__'
p20
S"<method-wrapper '__getitem__' of exceptions.ImportError object>"
p21
sS'__setstate__'
p22
S'<built-in method __setstate__ of exceptions.ImportError object>'
p23
sS'__reduce__'
p24
S'<built-in method __reduce__ of exceptions.ImportError object>'
p25
sS'__str__'
p26
S"<method-wrapper '__str__' of exceptions.ImportError object>"
p27
sS'__format__'
p28
S'<built-in method __format__ of exceptions.ImportError object>'
p29
sS'__getattribute__'
p30
S"<method-wrapper '__getattribute__' of exceptions.ImportError object>"
p31
sS'__class__'
p32
S"<type 'exceptions.ImportError'>"
p33
sS'__unicode__'
p34
S'<built-in method __unicode__ of exceptions.ImportError object>'
p35
sS'__delattr__'
p36
S"<method-wrapper '__delattr__' of exceptions.ImportError object>"
p37
sS'__subclasshook__'
p38
S'<built-in method __subclasshook__ of type object>'
p39
sS'__repr__'
p40
S"<method-wrapper '__repr__' of exceptions.ImportError object>"
p41
sS'args'
p42
S"('cannot import name mail',)"
p43
sS'__dict__'
p44
S'{}'
p45
sS'__sizeof__'
p46
S'<built-in method __sizeof__ of exceptions.ImportError object>'
p47
sS'__doc__'
p48
S'"Import can\'t find module, or can\'t find name in module."'
p49
sS'__init__'
p50
S"<method-wrapper '__init__' of exceptions.ImportError object>"
p51
sS'__new__'
p52
S'<built-in method __new__ of type object>'
p53
ssS'evalue'
p54
S'cannot import name mail'
p55
sS'request'
p56
cgluon.html
XML_unpickle
p57
(S's\xe5\x86\x00\x00<div><table><tr><td style="font-weight:bold;vertical-align:top;">ajax</td><td style="vertical-align:top;">:</td><td><div>False</div></td></tr><tr><td style="font-weight:bold;vertical-align:top;">application</td><td style="vertical-align:top;">:</td><td><div>budz</div></td></tr><tr><td style="font-weight:bold;vertical-align:top;">args</td><td style="vertical-align:top;">:</td><td><div><table></table></div></td></tr><tr><td style="font-weight:bold;vertical-align:top;">cid</td><td style="vertical-align:top;">:</td><td><div>None</div></td></tr><tr><td style="font-weight:bold;vertical-align:top;">client</td><td style="vertical-align:top;">:</td><td><div>127.0.0.1</div></td></tr><tr><td style="font-weight:bold;vertical-align:top;">controller</td><td style="vertical-align:top;">:</td><td><div>default</div></td></tr><tr><td style="font-weight:bold;vertical-align:top;">cookies</td><td style="vertical-align:top;">:</td><td><div><table><tr><td style="font-weight:bold;vertical-align:top;">session_id_admin</td><td style="vertical-align:top;">:</td><td><div>127.0.0.1-5c27e871-16e7-457b-adc4-122eea296f32<table><tr><td style="font-weight:bold;vertical-align:top;">comment</td><td style="vertical-align:top;">:</td><td><div></div></td></tr><tr><td style="font-weight:bold;vertical-align:top;">domain</td><td style="vertical-align:top;">:</td><td><div></div></td></tr><tr><td style="font-weight:bold;vertical-align:top;">expires</td><td style="vertical-align:top;">:</td><td><div></div></td></tr><tr><td style="font-weight:bold;vertical-align:top;">httponly</td><td style="vertical-align:top;">:</td><td><div></div></td></tr><tr><td style="font-weight:bold;vertical-align:top;">max-age</td><td style="vertical-align:top;">:</td><td><div></div></td></tr><tr><td style="font-weight:bold;vertical-align:top;">path</td><td style="vertical-align:top;">:</td><td><div></div></td></tr><tr><td style="font-weight:bold;vertical-align:top;">secure</td><td style="vertical-align:top;">:</td><td><div></div></td></tr><tr><td style="font-weight:bold;vertical-align:top;">version</td><td style="vertical-align:top;">:</td><td><div></div></td></tr></table></div></td></tr><tr><td style="font-weight:bold;vertical-align:top;">session_id_bbbbboard</td><td style="vertical-align:top;">:</td><td><div>127.0.0.1-39df9f02-23e3-464f-89c6-8c8e84bf157d<table><tr><td style="font-weight:bold;vertical-align:top;">comment</td><td style="vertical-align:top;">:</td><td><div></div></td></tr><tr><td style="font-weight:bold;vertical-align:top;">domain</td><td style="vertical-align:top;">:</td><td><div></div></td></tr><tr><td style="font-weight:bold;vertical-align:top;">expires</td><td style="vertical-align:top;">:</td><td><div></div></td></tr><tr><td style="font-weight:bold;vertical-align:top;">httponly</td><td style="vertical-align:top;">:</td><td><div></div></td></tr><tr><td style="font-weight:bold;vertical-align:top;">max-age</td><td style="vertical-align:top;">:</td><td><div></div></td></tr><tr><td style="font-weight:bold;vertical-align:top;">path</td><td style="vertical-align:top;">:</td><td><div></div></td></tr><tr><td style="font-weight:bold;vertical-align:top;">secure</td><td style="vertical-align:top;">:</td><td><div></div></td></tr><tr><td style="font-weight:bold;vertical-align:top;">version</td><td style="vertical-align:top;">:</td><td><div></div></td></tr></table></div></td></tr><tr><td style="font-weight:bold;vertical-align:top;">session_id_budz</td><td style="vertical-align:top;">:</td><td><div>127.0.0.1-858174c2-7294-4e6c-9355-8aa22a343b70<table><tr><td style="font-weight:bold;vertical-align:top;">comment</td><td style="vertical-align:top;">:</td><td><div></div></td></tr><tr><td style="font-weight:bold;vertical-align:top;">domain</td><td style="vertical-align:top;">:</td><td><div></div></td></tr><tr><td style="font-weight:bold;vertical-align:top;">expires</td><td style="vertical-align:top;">:</td><td><div></div></td></tr><tr><td style="font-weight:bold;vertical-align:top;">httponly</td><td style="vertical-align:top;">:</td><td><div></div></td></tr><tr><td style="font-weight:bold;vertical-align:top;">max-age</td><td style="vertical-align:top;">:</td><td><div></div></td></tr><tr><td style="font-weight:bold;vertical-align:top;">path</td><td style="vertical-align:top;">:</td><td><div></div></td></tr><tr><td style="font-weight:bold;vertical-align:top;">secure</td><td style="vertical-align:top;">:</td><td><div></div></td></tr><tr><td style="font-weight:bold;vertical-align:top;">version</td><td style="vertical-align:top;">:</td><td><div></div></td></tr></table></div></td></tr><tr><td style="font-weight:bold;vertical-align:top;">session_id_crowdgrader1</td><td style="vertical-align:top;">:</td><td><div>127.0.0.1-42c35818-8802-414c-b48a-43f5ec61000b<table><tr><td style="font-weight:bold;vertical-align:top;">comment</td><td style="vertical-align:top;">:</td><td><div></div></td></tr><tr><td style="font-weight:bold;vertical-align:top;">domain</td><td style="vertical-align:top;">:</td><td><div></div></td></tr><tr><td style="font-weight:bold;vertical-align:top;">expires</td><td style="vertical-align:top;">:</td><td><div></div></td></tr><tr><td style="font-weight:bold;vertical-align:top;">httponly</td><td style="vertical-align:top;">:</td><td><div></div></td></tr><tr><td style="font-weight:bold;vertical-align:top;">max-age</td><td style="vertical-align:top;">:</td><td><div></div></td></tr><tr><td style="font-weight:bold;vertical-align:top;">path</td><td style="vertical-align:top;">:</td><td><div></div></td></tr><tr><td style="font-weight:bold;vertical-align:top;">secure</td><td style="vertical-align:top;">:</td><td><div></div></td></tr><tr><td style="font-weight:bold;vertical-align:top;">version</td><td style="vertical-align:top;">:</td><td><div></div></td></tr></table></div></td></tr><tr><td style="font-weight:bold;vertical-align:top;">session_id_crowdgrader2_1</td><td style="vertical-align:top;">:</td><td><div>127.0.0.1-bb99b3dc-ede9-47bf-857a-5718bf274c0c<table><tr><td style="font-weight:bold;vertical-align:top;">comment</td><td style="vertical-align:top;">:</td><td><div></div></td></tr><tr><td style="font-weight:bold;vertical-align:top;">domain</td><td style="vertical-align:top;">:</td><td><div></div></td></tr><tr><td style="font-weight:bold;vertical-align:top;">expires</td><td style="vertical-align:top;">:</td><td><div></div></td></tr><tr><td style="font-weight:bold;vertical-align:top;">httponly</td><td style="vertical-align:top;">:</td><td><div></div></td></tr><tr><td style="font-weight:bold;vertical-align:top;">max-age</td><td style="vertical-align:top;">:</td><td><div></div></td></tr><tr><td style="font-weight:bold;vertical-align:top;">path</td><td style="vertical-align:top;">:</td><td><div></div></td></tr><tr><td style="font-weight:bold;vertical-align:top;">secure</td><td style="vertical-align:top;">:</td><td><div></div></td></tr><tr><td style="font-weight:bold;vertical-align:top;">version</td><td style="vertical-align:top;">:</td><td><div></div></td></tr></table></div></td></tr><tr><td style="font-weight:bold;vertical-align:top;">session_id_crowdgrader2_2</td><td style="vertical-align:top;">:</td><td><div>127.0.0.1-ef890e46-8613-4f5b-935a-55c25bde5f4e<table><tr><td style="font-weight:bold;vertical-align:top;">comment</td><td style="vertical-align:top;">:</td><td><div></div></td></tr><tr><td style="font-weight:bold;vertical-align:top;">domain</td><td style="vertical-align:top;">:</td><td><div></div></td></tr><tr><td style="font-weight:bold;vertical-align:top;">expires</td><td style="vertical-align:top;">:</td><td><div></div></td></tr><tr><td style="font-weight:bold;vertical-align:top;">httponly</td><td style="vertical-align:top;">:</td><td><div></div></td></tr><tr><td style="font-weight:bold;vertical-align:top;">max-age</td><td style="vertical-align:top;">:</td><td><div></div></td></tr><tr><td style="font-weight:bold;vertical-align:top;">path</td><td style="vertical-align:top;">:</td><td><div></div></td></tr><tr><td style="font-weight:bold;vertical-align:top;">secure</td><td style="vertical-align:top;">:</td><td><div></div></td></tr><tr><td style="font-weight:bold;vertical-align:top;">version</td><td style="vertical-align:top;">:</td><td><div></div></td></tr></table></div></td></tr><tr><td style="font-weight:bold;vertical-align:top;">session_id_crowdgrader2_3</td><td style="vertical-align:top;">:</td><td><div>127.0.0.1-0d1d3092-071a-4312-b2f2-d680e8c8ec53<table><tr><td style="font-weight:bold;vertical-align:top;">comment</td><td style="vertical-align:top;">:</td><td><div></div></td></tr><tr><td style="font-weight:bold;vertical-align:top;">domain</td><td style="vertical-align:top;">:</td><td><div></div></td></tr><tr><td style="font-weight:bold;vertical-align:top;">expires</td><td style="vertical-align:top;">:</td><td><div></div></td></tr><tr><td style="font-weight:bold;vertical-align:top;">httponly</td><td style="vertical-align:top;">:</td><td><div></div></td></tr><tr><td style="font-weight:bold;vertical-align:top;">max-age</td><td style="vertical-align:top;">:</td><td><div></div></td></tr><tr><td style="font-weight:bold;vertical-align:top;">path</td><td style="vertical-align:top;">:</td><td><div></div></td></tr><tr><td style="font-weight:bold;vertical-align:top;">secure</td><td style="vertical-align:top;">:</td><td><div></div></td></tr><tr><td style="font-weight:bold;vertical-align:top;">version</td><td style="vertical-align:top;">:</td><td><div></div></td></tr></table></div></td></tr><tr><td style="font-weight:bold;vertical-align:top;">session_id_crowdgrader2_4</td><td style="vertical-align:top;">:</td><td><div>127.0.0.1-b368eaec-8554-4720-bb8e-8127d4d60a17<table><tr><td style="font-weight:bold;vertical-align:top;">comment</td><td style="vertical-align:top;">:</td><td><div></div></td></tr><tr><td style="font-weight:bold;vertical-align:top;">domain</td><td style="vertical-align:top;">:</td><td><div></div></td></tr><tr><td style="font-weight:bold;vertical-align:top;">expires</td><td style="vertical-align:top;">:</td><td><div></div></td></tr><tr><td style="font-weight:bold;vertical-align:top;">httponly</td><td style="vertical-align:top;">:</td><td><div></div></td></tr><tr><td style="font-weight:bold;vertical-align:top;">max-age</td><td style="vertical-align:top;">:</td><td><div></div></td></tr><tr><td style="font-weight:bold;vertical-align:top;">path</td><td style="vertical-align:top;">:</td><td><div></div></td></tr><tr><td style="font-weight:bold;vertical-align:top;">secure</td><td style="vertical-align:top;">:</td><td><div></div></td></tr><tr><td style="font-weight:bold;vertical-align:top;">version</td><td style="vertical-align:top;">:</td><td><div></div></td></tr></table></div></td></tr><tr><td style="font-weight:bold;vertical-align:top;">session_id_scrap</td><td style="vertical-align:top;">:</td><td><div>127.0.0.1-24411d48-ed23-4709-91e2-bbcd5a2a8fdf<table><tr><td style="font-weight:bold;vertical-align:top;">comment</td><td style="vertical-align:top;">:</td><td><div></div></td></tr><tr><td style="font-weight:bold;vertical-align:top;">domain</td><td style="vertical-align:top;">:</td><td><div></div></td></tr><tr><td style="font-weight:bold;vertical-align:top;">expires</td><td style="vertical-align:top;">:</td><td><div></div></td></tr><tr><td style="font-weight:bold;vertical-align:top;">httponly</td><td style="vertical-align:top;">:</td><td><div></div></td></tr><tr><td style="font-weight:bold;vertical-align:top;">max-age</td><td style="vertical-align:top;">:</td><td><div></div></td></tr><tr><td style="font-weight:bold;vertical-align:top;">path</td><td style="vertical-align:top;">:</td><td><div></div></td></tr><tr><td style="font-weight:bold;vertical-align:top;">secure</td><td style="vertical-align:top;">:</td><td><div></div></td></tr><tr><td style="font-weight:bold;vertical-align:top;">version</td><td style="vertical-align:top;">:</td><td><div></div></td></tr></table></div></td></tr><tr><td style="font-weight:bold;vertical-align:top;">session_id_welcome</td><td style="vertical-align:top;">:</td><td><div>127.0.0.1-95da9178-4439-4429-8944-803a2e34f55a<table><tr><td style="font-weight:bold;vertical-align:top;">comment</td><td style="vertical-align:top;">:</td><td><div></div></td></tr><tr><td style="font-weight:bold;vertical-align:top;">domain</td><td style="vertical-align:top;">:</td><td><div></div></td></tr><tr><td style="font-weight:bold;vertical-align:top;">expires</td><td style="vertical-align:top;">:</td><td><div></div></td></tr><tr><td style="font-weight:bold;vertical-align:top;">httponly</td><td style="vertical-align:top;">:</td><td><div></div></td></tr><tr><td style="font-weight:bold;vertical-align:top;">max-age</td><td style="vertical-align:top;">:</td><td><div></div></td></tr><tr><td style="font-weight:bold;vertical-align:top;">path</td><td style="vertical-align:top;">:</td><td><div></div></td></tr><tr><td style="font-weight:bold;vertical-align:top;">secure</td><td style="vertical-align:top;">:</td><td><div></div></td></tr><tr><td style="font-weight:bold;vertical-align:top;">version</td><td style="vertical-align:top;">:</td><td><div></div></td></tr></table></div></td></tr></table></div></td></tr><tr><td style="font-weight:bold;vertical-align:top;">env</td><td style="vertical-align:top;">:</td><td><div><table><tr><td style="font-weight:bold;vertical-align:top;">HTTP_ACCEPT</td><td style="vertical-align:top;">:</td><td><div>text/html,application/xhtml+xml,application/xml;q=0.9,image/webp,*/*;q=0.8</div></td></tr><tr><td style="font-weight:bold;vertical-align:top;">HTTP_ACCEPT_ENCODING</td><td style="vertical-align:top;">:</td><td><div>gzip, deflate, sdch</div></td></tr><tr><td style="font-weight:bold;vertical-align:top;">HTTP_ACCEPT_LANGUAGE</td><td style="vertical-align:top;">:</td><td><div>en-US,en;q=0.8</div></td></tr><tr><td style="font-weight:bold;vertical-align:top;">HTTP_CONNECTION</td><td style="vertical-align:top;">:</td><td><div>keep-alive</div></td></tr><tr><td style="font-weight:bold;vertical-align:top;">HTTP_COOKIE</td><td style="vertical-align:top;">:</td><td><div>session_id_crowdgrader1=127.0.0.1-42c35818-8802-414c-b48a-43f5ec61000b; session_id_bbbbboard=127.0.0.1-39df9f02-23e3-464f-89c6-8c8e84bf157d; session_id_scrap=127.0.0.1-24411d48-ed23-4709-91e2-bbcd5a2a8fdf; session_id_crowdgrader2_2=127.0.0.1-ef890e46-8613-4f5b-935a-55c25bde5f4e; session_id_crowdgrader2_3=127.0.0.1-0d1d3092-071a-4312-b2f2-d680e8c8ec53; session_id_crowdgrader2_4=127.0.0.1-b368eaec-8554-4720-bb8e-8127d4d60a17; session_id_crowdgrader2_1=127.0.0.1-bb99b3dc-ede9-47bf-857a-5718bf274c0c; session_id_welcome=127.0.0.1-95da9178-4439-4429-8944-803a2e34f55a; session_id_admin=127.0.0.1-5c27e871-16e7-457b-adc4-122eea296f32; session_id_budz=127.0.0.1-858174c2-7294-4e6c-9355-8aa22a343b70</div></td></tr><tr><td style="font-weight:bold;vertical-align:top;">HTTP_HOST</td><td style="vertical-align:top;">:</td><td><div>127.0.0.1:8000</div></td></tr><tr><td style="font-weight:bold;vertical-align:top;">HTTP_REFERER</td><td style="vertical-align:top;">:</td><td><div>http://127.0.0.1:8000/budz/default/user/login?_next=/budz/default/addstudent</div></td></tr><tr><td style="font-weight:bold;vertical-align:top;">HTTP_USER_AGENT</td><td style="vertical-align:top;">:</td><td><div>Mozilla/5.0 (Windows NT 6.3; WOW64) AppleWebKit/537.36 (KHTML, like Gecko) Chrome/41.0.2272.89 Safari/537.36</div></td></tr><tr><td style="font-weight:bold;vertical-align:top;">PATH_INFO</td><td style="vertical-align:top;">:</td><td><div>/budz/default/index</div></td></tr><tr><td style="font-weight:bold;vertical-align:top;">QUERY_STRING</td><td style="vertical-align:top;">:</td><td><div></div></td></tr><tr><td style="font-weight:bold;vertical-align:top;">REMOTE_ADDR</td><td style="vertical-align:top;">:</td><td><div>127.0.0.1</div></td></tr><tr><td style="font-weight:bold;vertical-align:top;">REMOTE_PORT</td><td style="vertical-align:top;">:</td><td><div>52228</div></td></tr><tr><td style="font-weight:bold;vertical-align:top;">REQUEST_METHOD</td><td style="vertical-align:top;">:</td><td><div>GET</div></td></tr><tr><td style="font-weight:bold;vertical-align:top;">SCRIPT_NAME</td><td style="vertical-align:top;">:</td><td><div></div></td></tr><tr><td style="font-weight:bold;vertical-align:top;">SERVER_NAME</td><td style="vertical-align:top;">:</td><td><div>TheBigBlack</div></td></tr><tr><td style="font-weight:bold;vertical-align:top;">SERVER_PORT</td><td style="vertical-align:top;">:</td><td><div>8000</div></td></tr><tr><td style="font-weight:bold;vertical-align:top;">SERVER_PROTOCOL</td><td style="vertical-align:top;">:</td><td><div>HTTP/1.1</div></td></tr><tr><td style="font-weight:bold;vertical-align:top;">SERVER_SOFTWARE</td><td style="vertical-align:top;">:</td><td><div>Rocket 1.2.6</div></td></tr><tr><td style="font-weight:bold;vertical-align:top;">app_folders</td><td style="vertical-align:top;">:</td><td><div>set([&#x27;C:\\\\Users\\\\Chris\\\\Documents\\\\web2py\\\\applications\\\\budz\\\\&#x27;, &#x27;C:\\\\Users\\\\Chris\\\\Documents\\\\web2py\\\\applications\\\\scrap\\\\&#x27;, &#x27;C:\\\\Users\\\\Chris\\\\Documents\\\\web2py\\\\applications\\\\crowdgrader2_4\\\\&#x27;, &#x27;C:\\\\Users\\\\Chris\\\\Documents\\\\web2py\\\\applications\\\\crowdgrader2_3\\\\&#x27;, &#x27;C:\\\\Users\\\\Chris\\\\Documents\\\\web2py\\\\applications\\\\crowdgrader2_2\\\\&#x27;, &#x27;C:\\\\Users\\\\Chris\\\\Documents\\\\web2py\\\\applications\\\\admin\\\\&#x27;, &#x27;C:\\\\Users\\\\Chris\\\\Documents\\\\web2py\\\\applications\\\\welcome\\\\&#x27;, &#x27;C:\\\\Users\\\\Chris\\\\Documents\\\\web2py\\\\applications\\\\crowdgrader2_1\\\\&#x27;])</div></td></tr><tr><td style="font-weight:bold;vertical-align:top;">applications_parent</td><td style="vertical-align:top;">:</td><td><div>C:\\Users\\Chris\\Documents\\web2py</div></td></tr><tr><td style="font-weight:bold;vertical-align:top;">cmd_args</td><td style="vertical-align:top;">:</td><td><div><table></table></div></td></tr><tr><td style="font-weight:bold;vertical-align:top;">cmd_options</td><td style="vertical-align:top;">:</td><td><div>&lt;Values at 0x2f4cb20: {&#x27;verbose&#x27;: False, &#x27;ip&#x27;: &#x27;127.0.0.1&#x27;, &#x27;debuglevel&#x27;: 30, &#x27;with_scheduler&#x27;: False, &#x27;ips&#x27;: [], &#x27;shutdown_timeout&#x27;: 5, &#x27;taskbar&#x27;: False, &#x27;with_coverage&#x27;: False, &#x27;scheduler_groups&#x27;: None, &#x27;port&#x27;: 8000, &#x27;maxthreads&#x27;: None, &#x27;softcron&#x27;: False, &#x27;server_name&#x27;: &#x27;TheBigBlack&#x27;, &#x27;bpython&#x27;: False, &#x27;nogui&#x27;: False, &#x27;pid_filename&#x27;: &#x27;httpserver.pid&#x27;, &#x27;extcron&#x27;: False, &#x27;runcron&#x27;: False, &#x27;run_system_tests&#x27;: False, &#x27;test&#x27;: None, &#x27;folder&#x27;: &#x27;C:\\\\Users\\\\Chris\\\\Documents\\\\web2py&#x27;, &#x27;config&#x27;: &#x27;&#x27;, &#x27;minthreads&#x27;: None, &#x27;shell&#x27;: None, &#x27;run&#x27;: &#x27;&#x27;, &#x27;log_filename&#x27;: &#x27;httpserver.log&#x27;, &#x27;profiler_dir&#x27;: None, &#x27;args&#x27;: [&#x27;&#x27;], &#x27;socket_timeout&#x27;: 5, &#x27;ssl_ca_certificate&#x27;: None, &#x27;scheduler&#x27;: None, &#x27;interfaces&#x27;: None, &#x27;ssl_private_key&#x27;: &#x27;&#x27;, &#x27;gae&#x27;: None, &#x27;password&#x27;: &#x27;&lt;ask&gt;&#x27;, &#x27;request_queue_size&#x27;: 5, &#x27;ssl_certificate&#x27;: &#x27;&#x27;, &#x27;cronjob&#x27;: False, &#x27;numthreads&#x27;: None, &#x27;quiet&#x27;: False, &#x27;import_models&#x27;: False, &#x27;timeout&#x27;: 10, &#x27;plain&#x27;: False, &#x27;nobanner&#x27;: False}&gt;</div></td></tr><tr><td style="font-weight:bold;vertical-align:top;">db_sessions</td><td style="vertical-align:top;">:</td><td><div>set([])</div></td></tr><tr><td style="font-weight:bold;vertical-align:top;">debugging</td><td style="vertical-align:top;">:</td><td><div>False</div></td></tr><tr><td style="font-weight:bold;vertical-align:top;">gluon_parent</td><td style="vertical-align:top;">:</td><td><div>C:\\Users\\Chris\\Documents\\web2py</div></td></tr><tr><td style="font-weight:bold;vertical-align:top;">http_accept</td><td style="vertical-align:top;">:</td><td><div>text/html,application/xhtml+xml,application/xml;q=0.9,image/webp,*/*;q=0.8</div></td></tr><tr><td style="font-weight:bold;vertical-align:top;">http_accept_encoding</td><td style="vertical-align:top;">:</td><td><div>gzip, deflate, sdch</div></td></tr><tr><td style="font-weight:bold;vertical-align:top;">http_accept_language</td><td style="vertical-align:top;">:</td><td><div>en-US,en;q=0.8</div></td></tr><tr><td style="font-weight:bold;vertical-align:top;">http_connection</td><td style="vertical-align:top;">:</td><td><div>keep-alive</div></td></tr><tr><td style="font-weight:bold;vertical-align:top;">http_cookie</td><td style="vertical-align:top;">:</td><td><div>session_id_crowdgrader1=127.0.0.1-42c35818-8802-414c-b48a-43f5ec61000b; session_id_bbbbboard=127.0.0.1-39df9f02-23e3-464f-89c6-8c8e84bf157d; session_id_scrap=127.0.0.1-24411d48-ed23-4709-91e2-bbcd5a2a8fdf; session_id_crowdgrader2_2=127.0.0.1-ef890e46-8613-4f5b-935a-55c25bde5f4e; session_id_crowdgrader2_3=127.0.0.1-0d1d3092-071a-4312-b2f2-d680e8c8ec53; session_id_crowdgrader2_4=127.0.0.1-b368eaec-8554-4720-bb8e-8127d4d60a17; session_id_crowdgrader2_1=127.0.0.1-bb99b3dc-ede9-47bf-857a-5718bf274c0c; session_id_welcome=127.0.0.1-95da9178-4439-4429-8944-803a2e34f55a; session_id_admin=127.0.0.1-5c27e871-16e7-457b-adc4-122eea296f32; session_id_budz=127.0.0.1-858174c2-7294-4e6c-9355-8aa22a343b70</div></td></tr><tr><td style="font-weight:bold;vertical-align:top;">http_host</td><td style="vertical-align:top;">:</td><td><div>127.0.0.1:8000</div></td></tr><tr><td style="font-weight:bold;vertical-align:top;">http_referer</td><td style="vertical-align:top;">:</td><td><div>http://127.0.0.1:8000/budz/default/user/login?_next=/budz/default/addstudent</div></td></tr><tr><td style="font-weight:bold;vertical-align:top;">http_user_agent</td><td style="vertical-align:top;">:</td><td><div>Mozilla/5.0 (Windows NT 6.3; WOW64) AppleWebKit/537.36 (KHTML, like Gecko) Chrome/41.0.2272.89 Safari/537.36</div></td></tr><tr><td style="font-weight:bold;vertical-align:top;">is_jython</td><td style="vertical-align:top;">:</td><td><div>False</div></td></tr><tr><td style="font-weight:bold;vertical-align:top;">is_pypy</td><td style="vertical-align:top;">:</td><td><div>False</div></td></tr><tr><td style="font-weight:bold;vertical-align:top;">is_source</td><td style="vertical-align:top;">:</td><td><div>False</div></td></tr><tr><td style="font-weight:bold;vertical-align:top;">local_hosts</td><td style="vertical-align:top;">:</td><td><div><table><tr><td><div>2001:0:9d38:6ab8:30b0:397d:5616:161</div></td></tr><tr><td><div>fe80::30b0:397d:5616:161%9</div></td></tr><tr><td><div>TheBigBlack</div></td></tr><tr><td><div>::ffff:127.0.0.1</div></td></tr><tr><td><div>::1</div></td></tr><tr><td><div>fe80::b894:a814:784e:dc72%3</div></td></tr><tr><td><div>fe80::200:5efe:169.233.254.158%10</div></td></tr><tr><td><div>TheBigBlack.ucsc.edu</div></td></tr><tr><td><div>2002:a9e9:fe9e::a9e9:fe9e</div></td></tr><tr><td><div>169.233.254.158</div></td></tr><tr><td><div>127.0.0.1</div></td></tr></table></div></td></tr><tr><td style="font-weight:bold;vertical-align:top;">path_info</td><td style="vertical-align:top;">:</td><td><div>/budz/default/index</div></td></tr><tr><td style="font-weight:bold;vertical-align:top;">query_string</td><td style="vertical-align:top;">:</td><td><div></div></td></tr><tr><td style="font-weight:bold;vertical-align:top;">remote_addr</td><td style="vertical-align:top;">:</td><td><div>127.0.0.1</div></td></tr><tr><td style="font-weight:bold;vertical-align:top;">remote_port</td><td style="vertical-align:top;">:</td><td><div>52228</div></td></tr><tr><td style="font-weight:bold;vertical-align:top;">request_method</td><td style="vertical-align:top;">:</td><td><div>GET</div></td></tr><tr><td style="font-weight:bold;vertical-align:top;">request_uri</td><td style="vertical-align:top;">:</td><td><div>/budz/default/index</div></td></tr><tr><td style="font-weight:bold;vertical-align:top;">script_name</td><td style="vertical-align:top;">:</td><td><div></div></td></tr><tr><td style="font-weight:bold;vertical-align:top;">server_name</td><td style="vertical-align:top;">:</td><td><div>TheBigBlack</div></td></tr><tr><td style="font-weight:bold;vertical-align:top;">server_port</td><td style="vertical-align:top;">:</td><td><div>8000</div></td></tr><tr><td style="font-weight:bold;vertical-align:top;">server_protocol</td><td style="vertical-align:top;">:</td><td><div>HTTP/1.1</div></td></tr><tr><td style="font-weight:bold;vertical-align:top;">server_software</td><td style="vertical-align:top;">:</td><td><div>Rocket 1.2.6</div></td></tr><tr><td style="font-weight:bold;vertical-align:top;">web2py_path</td><td style="vertical-align:top;">:</td><td><div>C:\\Users\\Chris\\Documents\\web2py</div></td></tr><tr><td style="font-weight:bold;vertical-align:top;">web2py_version</td><td style="vertical-align:top;">:</td><td><div>2.9.12-stable+timestamp.2015.01.17.06.11.03</div></td></tr><tr><td style="font-weight:bold;vertical-align:top;">wsgi.errors</td><td style="vertical-align:top;">:</td><td><div>&lt;open file &#x27;&lt;stderr&gt;&#x27;, mode &#x27;w&#x27; at 0x005E60D0&gt;</div></td></tr><tr><td style="font-weight:bold;vertical-align:top;">wsgi.file_wrapper</td><td style="vertical-align:top;">:</td><td><div>&lt;class wsgiref.util.FileWrapper at 0x02F940A0&gt;</div></td></tr><tr><td style="font-weight:bold;vertical-align:top;">wsgi.input</td><td style="vertical-align:top;">:</td><td><div>&lt;socket._fileobject object at 0x07A8E7F0&gt;</div></td></tr><tr><td style="font-weight:bold;vertical-align:top;">wsgi.multiprocess</td><td style="vertical-align:top;">:</td><td><div>False</div></td></tr><tr><td style="font-weight:bold;vertical-align:top;">wsgi.multithread</td><td style="vertical-align:top;">:</td><td><div>True</div></td></tr><tr><td style="font-weight:bold;vertical-align:top;">wsgi.run_once</td><td style="vertical-align:top;">:</td><td><div>False</div></td></tr><tr><td style="font-weight:bold;vertical-align:top;">wsgi.url_scheme</td><td style="vertical-align:top;">:</td><td><div>http</div></td></tr><tr><td style="font-weight:bold;vertical-align:top;">wsgi.version</td><td style="vertical-align:top;">:</td><td><div><table><tr><td><div>1</div></td></tr><tr><td><div>0</div></td></tr></table></div></td></tr><tr><td style="font-weight:bold;vertical-align:top;">wsgi_errors</td><td style="vertical-align:top;">:</td><td><div>&lt;open file &#x27;&lt;stderr&gt;&#x27;, mode &#x27;w&#x27; at 0x005E60D0&gt;</div></td></tr><tr><td style="font-weight:bold;vertical-align:top;">wsgi_file_wrapper</td><td style="vertical-align:top;">:</td><td><div>&lt;class wsgiref.util.FileWrapper at 0x02F940A0&gt;</div></td></tr><tr><td style="font-weight:bold;vertical-align:top;">wsgi_input</td><td style="vertical-align:top;">:</td><td><div>&lt;socket._fileobject object at 0x07A8E7F0&gt;</div></td></tr><tr><td style="font-weight:bold;vertical-align:top;">wsgi_multiprocess</td><td style="vertical-align:top;">:</td><td><div>False</div></td></tr><tr><td style="font-weight:bold;vertical-align:top;">wsgi_multithread</td><td style="vertical-align:top;">:</td><td><div>True</div></td></tr><tr><td style="font-weight:bold;vertical-align:top;">wsgi_run_once</td><td style="vertical-align:top;">:</td><td><div>False</div></td></tr><tr><td style="font-weight:bold;vertical-align:top;">wsgi_url_scheme</td><td style="vertical-align:top;">:</td><td><div>http</div></td></tr><tr><td style="font-weight:bold;vertical-align:top;">wsgi_version</td><td style="vertical-align:top;">:</td><td><div><table><tr><td><div>1</div></td></tr><tr><td><div>0</div></td></tr></table></div></td></tr></table></div></td></tr><tr><td style="font-weight:bold;vertical-align:top;">extension</td><td style="vertical-align:top;">:</td><td><div>html</div></td></tr><tr><td style="font-weight:bold;vertical-align:top;">folder</td><td style="vertical-align:top;">:</td><td><div>C:\\Users\\Chris\\Documents\\web2py\\applications\\budz\\</div></td></tr><tr><td style="font-weight:bold;vertical-align:top;">function</td><td style="vertical-align:top;">:</td><td><div>index</div></td></tr><tr><td style="font-weight:bold;vertical-align:top;">global_settings</td><td style="vertical-align:top;">:</td><td><div><table><tr><td style="font-weight:bold;vertical-align:top;">app_folders</td><td style="vertical-align:top;">:</td><td><div>set([&#x27;C:\\\\Users\\\\Chris\\\\Documents\\\\web2py\\\\applications\\\\budz\\\\&#x27;, &#x27;C:\\\\Users\\\\Chris\\\\Documents\\\\web2py\\\\applications\\\\scrap\\\\&#x27;, &#x27;C:\\\\Users\\\\Chris\\\\Documents\\\\web2py\\\\applications\\\\crowdgrader2_4\\\\&#x27;, &#x27;C:\\\\Users\\\\Chris\\\\Documents\\\\web2py\\\\applications\\\\crowdgrader2_3\\\\&#x27;, &#x27;C:\\\\Users\\\\Chris\\\\Documents\\\\web2py\\\\applications\\\\crowdgrader2_2\\\\&#x27;, &#x27;C:\\\\Users\\\\Chris\\\\Documents\\\\web2py\\\\applications\\\\admin\\\\&#x27;, &#x27;C:\\\\Users\\\\Chris\\\\Documents\\\\web2py\\\\applications\\\\welcome\\\\&#x27;, &#x27;C:\\\\Users\\\\Chris\\\\Documents\\\\web2py\\\\applications\\\\crowdgrader2_1\\\\&#x27;])</div></td></tr><tr><td style="font-weight:bold;vertical-align:top;">applications_parent</td><td style="vertical-align:top;">:</td><td><div>C:\\Users\\Chris\\Documents\\web2py</div></td></tr><tr><td style="font-weight:bold;vertical-align:top;">cmd_args</td><td style="vertical-align:top;">:</td><td><div><table></table></div></td></tr><tr><td style="font-weight:bold;vertical-align:top;">cmd_options</td><td style="vertical-align:top;">:</td><td><div>&lt;Values at 0x2f4cb20: {&#x27;verbose&#x27;: False, &#x27;ip&#x27;: &#x27;127.0.0.1&#x27;, &#x27;debuglevel&#x27;: 30, &#x27;with_scheduler&#x27;: False, &#x27;ips&#x27;: [], &#x27;shutdown_timeout&#x27;: 5, &#x27;taskbar&#x27;: False, &#x27;with_coverage&#x27;: False, &#x27;scheduler_groups&#x27;: None, &#x27;port&#x27;: 8000, &#x27;maxthreads&#x27;: None, &#x27;softcron&#x27;: False, &#x27;server_name&#x27;: &#x27;TheBigBlack&#x27;, &#x27;bpython&#x27;: False, &#x27;nogui&#x27;: False, &#x27;pid_filename&#x27;: &#x27;httpserver.pid&#x27;, &#x27;extcron&#x27;: False, &#x27;runcron&#x27;: False, &#x27;run_system_tests&#x27;: False, &#x27;test&#x27;: None, &#x27;folder&#x27;: &#x27;C:\\\\Users\\\\Chris\\\\Documents\\\\web2py&#x27;, &#x27;config&#x27;: &#x27;&#x27;, &#x27;minthreads&#x27;: None, &#x27;shell&#x27;: None, &#x27;run&#x27;: &#x27;&#x27;, &#x27;log_filename&#x27;: &#x27;httpserver.log&#x27;, &#x27;profiler_dir&#x27;: None, &#x27;args&#x27;: [&#x27;&#x27;], &#x27;socket_timeout&#x27;: 5, &#x27;ssl_ca_certificate&#x27;: None, &#x27;scheduler&#x27;: None, &#x27;interfaces&#x27;: None, &#x27;ssl_private_key&#x27;: &#x27;&#x27;, &#x27;gae&#x27;: None, &#x27;password&#x27;: &#x27;&lt;ask&gt;&#x27;, &#x27;request_queue_size&#x27;: 5, &#x27;ssl_certificate&#x27;: &#x27;&#x27;, &#x27;cronjob&#x27;: False, &#x27;numthreads&#x27;: None, &#x27;quiet&#x27;: False, &#x27;import_models&#x27;: False, &#x27;timeout&#x27;: 10, &#x27;plain&#x27;: False, &#x27;nobanner&#x27;: False}&gt;</div></td></tr><tr><td style="font-weight:bold;vertical-align:top;">db_sessions</td><td style="vertical-align:top;">:</td><td><div>set([])</div></td></tr><tr><td style="font-weight:bold;vertical-align:top;">debugging</td><td style="vertical-align:top;">:</td><td><div>False</div></td></tr><tr><td style="font-weight:bold;vertical-align:top;">gluon_parent</td><td style="vertical-align:top;">:</td><td><div>C:\\Users\\Chris\\Documents\\web2py</div></td></tr><tr><td style="font-weight:bold;vertical-align:top;">is_jython</td><td style="vertical-align:top;">:</td><td><div>False</div></td></tr><tr><td style="font-weight:bold;vertical-align:top;">is_pypy</td><td style="vertical-align:top;">:</td><td><div>False</div></td></tr><tr><td style="font-weight:bold;vertical-align:top;">is_source</td><td style="vertical-align:top;">:</td><td><div>False</div></td></tr><tr><td style="font-weight:bold;vertical-align:top;">local_hosts</td><td style="vertical-align:top;">:</td><td><div><table><tr><td><div>2001:0:9d38:6ab8:30b0:397d:5616:161</div></td></tr><tr><td><div>fe80::30b0:397d:5616:161%9</div></td></tr><tr><td><div>TheBigBlack</div></td></tr><tr><td><div>::ffff:127.0.0.1</div></td></tr><tr><td><div>::1</div></td></tr><tr><td><div>fe80::b894:a814:784e:dc72%3</div></td></tr><tr><td><div>fe80::200:5efe:169.233.254.158%10</div></td></tr><tr><td><div>TheBigBlack.ucsc.edu</div></td></tr><tr><td><div>2002:a9e9:fe9e::a9e9:fe9e</div></td></tr><tr><td><div>169.233.254.158</div></td></tr><tr><td><div>127.0.0.1</div></td></tr></table></div></td></tr><tr><td style="font-weight:bold;vertical-align:top;">web2py_version</td><td style="vertical-align:top;">:</td><td><div>2.9.12-stable+timestamp.2015.01.17.06.11.03</div></td></tr></table></div></td></tr><tr><td style="font-weight:bold;vertical-align:top;">is_https</td><td style="vertical-align:top;">:</td><td><div>False</div></td></tr><tr><td style="font-weight:bold;vertical-align:top;">is_local</td><td style="vertical-align:top;">:</td><td><div>True</div></td></tr><tr><td style="font-weight:bold;vertical-align:top;">is_restful</td><td style="vertical-align:top;">:</td><td><div>False</div></td></tr><tr><td style="font-weight:bold;vertical-align:top;">is_sheduler</td><td style="vertical-align:top;">:</td><td><div>None</div></td></tr><tr><td style="font-weight:bold;vertical-align:top;">is_shell</td><td style="vertical-align:top;">:</td><td><div>None</div></td></tr><tr><td style="font-weight:bold;vertical-align:top;">now</td><td style="vertical-align:top;">:</td><td><div>datetime.datetime(2015, 3, 17, 7, 16, 51, 822000)</div></td></tr><tr><td style="font-weight:bold;vertical-align:top;">raw_args</td><td style="vertical-align:top;">:</td><td><div></div></td></tr><tr><td style="font-weight:bold;vertical-align:top;">raw_extension</td><td style="vertical-align:top;">:</td><td><div>None</div></td></tr><tr><td style="font-weight:bold;vertical-align:top;">url</td><td style="vertical-align:top;">:</td><td><div>/budz/default/index</div></td></tr><tr><td style="font-weight:bold;vertical-align:top;">utcnow</td><td style="vertical-align:top;">:</td><td><div>datetime.datetime(2015, 3, 17, 14, 16, 51, 822000)</div></td></tr><tr><td style="font-weight:bold;vertical-align:top;">uuid</td><td style="vertical-align:top;">:</td><td><div>budz/127.0.0.1.2015-03-17.07-16-51.a3e92a49-0945-47fd-b624-e058db2190d0</div></td></tr><tr><td style="font-weight:bold;vertical-align:top;">wsgi</td><td style="vertical-align:top;">:</td><td><div>&lt;gluon.main.LazyWSGI object at 0x082B5450&gt;</div></td></tr></table></div>'
tRp58
sS'frames'
p59
(lp60
(dp61
S'file'
p62
S'C:\\Users\\Chris\\Documents\\web2py\\gluon\\restricted.py'
p63
sS'dump'
p64
(dp65
sS'lnum'
p66
I224
sS'lines'
p67
(dp68
sS'call'
p69
S"(code='# -*- coding: utf-8 -*-\\n\\n#######################...ble auditing\\n# auth.enable_record_versioning(db)\\n', environment={'A': <class 'gluon.html.A'>, 'ANY_OF': <class 'gluon.validators.ANY_OF'>, 'ASSIGNJS': <function ASSIGNJS>, 'Auth': <class 'gluon.tools.Auth'>, 'B': <class 'gluon.html.B'>, 'BEAUTIFY': <class 'gluon.html.BEAUTIFY'>, 'BODY': <class 'gluon.html.BODY'>, 'BR': <class 'gluon.html.BR'>, 'BUTTON': <class 'gluon.html.BUTTON'>, 'CAT': <class 'gluon.html.CAT'>, ...}, layer=r'C:\\Users\\Chris\\Documents\\web2py\\applications\\budz\\models\\db.py')"
p70
sS'func'
p71
S'restricted'
p72
sa(dp73
g62
S'C:\\Users\\Chris\\Documents\\web2py\\applications\\budz\\models\\db.py'
p74
sg64
(dp75
S'Service'
p76
S'undefined'
p77
sS'Crud'
p78
S"<class 'gluon.tools.Crud'>"
p79
sS'Auth'
p80
S"<class 'gluon.tools.Auth'>"
p81
sS'gluon'
p82
g77
sS'mail'
p83
g77
sS'PluginManager'
p84
g77
sS'os'
p85
g77
ssg66
I44
sg67
(dp86
I39
S'## - services (xml, csv, json, xmlrpc, jsonrpc, amf, rss)'
p87
sI40
S'## - old style crud actions'
p88
sI41
S'## (more options discussed in gluon/tools.py)'
p89
sI42
S'#########################################################################'
p90
sI43
S''
sI44
S'from gluon.tools import Auth, Crud, mail, os, Service, PluginManager'
p91
sI45
S''
sI46
S'auth = Auth(db)'
p92
sI47
S'crud = Crud(db)'
p93
sI48
S"CATEGORY = ['Math', 'History', 'Writing', '-please choose a subject-']"
p94
ssg69
S'()'
p95
sg71
S'<module>'
p96
sasS'pyver'
p97
S'Python 2.7.6: C:\\Users\\Chris\\Documents\\web2py\\web2py.exe (prefix: C:\\Users\\Chris\\Anaconda)'
p98
sS'session'
p99
g57
(S's\x98\x00\x00\x00<div><table><tr><td style="font-weight:bold;vertical-align:top;">flash</td><td style="vertical-align:top;">:</td><td><div></div></td></tr></table></div>'
tRp100
sS'etype'
p101
S"<type 'exceptions.ImportError'>"
p102
sS'date'
p103
S'Tue Mar 17 07:16:51 2015'
p104
sS'response'
p105
g57
(S's\xf6\x17\x00\x00<div><table><tr><td style="font-weight:bold;vertical-align:top;">body</td><td style="vertical-align:top;">:</td><td><div>&lt;cStringIO.StringO object at 0x07F8DDC0&gt;</div></td></tr><tr><td style="font-weight:bold;vertical-align:top;">cookies</td><td style="vertical-align:top;">:</td><td><div><table><tr><td style="font-weight:bold;vertical-align:top;">session_id_budz</td><td style="vertical-align:top;">:</td><td><div>127.0.0.1-858174c2-7294-4e6c-9355-8aa22a343b70<table><tr><td style="font-weight:bold;vertical-align:top;">comment</td><td style="vertical-align:top;">:</td><td><div></div></td></tr><tr><td style="font-weight:bold;vertical-align:top;">domain</td><td style="vertical-align:top;">:</td><td><div></div></td></tr><tr><td style="font-weight:bold;vertical-align:top;">expires</td><td style="vertical-align:top;">:</td><td><div></div></td></tr><tr><td style="font-weight:bold;vertical-align:top;">httponly</td><td style="vertical-align:top;">:</td><td><div></div></td></tr><tr><td style="font-weight:bold;vertical-align:top;">max-age</td><td style="vertical-align:top;">:</td><td><div></div></td></tr><tr><td style="font-weight:bold;vertical-align:top;">path</td><td style="vertical-align:top;">:</td><td><div>/</div></td></tr><tr><td style="font-weight:bold;vertical-align:top;">secure</td><td style="vertical-align:top;">:</td><td><div></div></td></tr><tr><td style="font-weight:bold;vertical-align:top;">version</td><td style="vertical-align:top;">:</td><td><div></div></td></tr></table></div></td></tr></table></div></td></tr><tr><td style="font-weight:bold;vertical-align:top;">delimiters</td><td style="vertical-align:top;">:</td><td><div><table><tr><td><div>{{</div></td></tr><tr><td><div>}}</div></td></tr></table></div></td></tr><tr><td style="font-weight:bold;vertical-align:top;">files</td><td style="vertical-align:top;">:</td><td><div><table></table></div></td></tr><tr><td style="font-weight:bold;vertical-align:top;">flash</td><td style="vertical-align:top;">:</td><td><div></div></td></tr><tr><td style="font-weight:bold;vertical-align:top;">form_label_separator</td><td style="vertical-align:top;">:</td><td><div>: </div></td></tr><tr><td style="font-weight:bold;vertical-align:top;">formstyle</td><td style="vertical-align:top;">:</td><td><div>table3cols</div></td></tr><tr><td style="font-weight:bold;vertical-align:top;">generic_patterns</td><td style="vertical-align:top;">:</td><td><div><table><tr><td><div>*</div></td></tr></table></div></td></tr><tr><td style="font-weight:bold;vertical-align:top;">headers</td><td style="vertical-align:top;">:</td><td><div><table><tr><td style="font-weight:bold;vertical-align:top;">X-Powered-By</td><td style="vertical-align:top;">:</td><td><div>web2py</div></td></tr></table></div></td></tr><tr><td style="font-weight:bold;vertical-align:top;">menu</td><td style="vertical-align:top;">:</td><td><div><table></table></div></td></tr><tr><td style="font-weight:bold;vertical-align:top;">meta</td><td style="vertical-align:top;">:</td><td><div><table></table></div></td></tr><tr><td style="font-weight:bold;vertical-align:top;">models_to_run</td><td style="vertical-align:top;">:</td><td><div><table><tr><td><div>^\\w+\\.py$</div></td></tr><tr><td><div>^default/\\w+\\.py$</div></td></tr><tr><td><div>^default/index/\\w+\\.py$</div></td></tr></table></div></td></tr><tr><td style="font-weight:bold;vertical-align:top;">postprocessing</td><td style="vertical-align:top;">:</td><td><div><table></table></div></td></tr><tr><td style="font-weight:bold;vertical-align:top;">session_client</td><td style="vertical-align:top;">:</td><td><div>127.0.0.1</div></td></tr><tr><td style="font-weight:bold;vertical-align:top;">session_cookie_compression_level</td><td style="vertical-align:top;">:</td><td><div>None</div></td></tr><tr><td style="font-weight:bold;vertical-align:top;">session_cookie_expires</td><td style="vertical-align:top;">:</td><td><div>None</div></td></tr><tr><td style="font-weight:bold;vertical-align:top;">session_cookie_key</td><td style="vertical-align:top;">:</td><td><div>None</div></td></tr><tr><td style="font-weight:bold;vertical-align:top;">session_data_name</td><td style="vertical-align:top;">:</td><td><div>session_data_budz</div></td></tr><tr><td style="font-weight:bold;vertical-align:top;">session_file</td><td style="vertical-align:top;">:</td><td><div>&lt;open file &#x27;C:\\\\Users\\\\Chris\\\\Documents\\\\web2py\\\\applications\\\\budz\\\\sessions\\\\1c6\\\\0c0\\\\127.0.0.1-858174c2-7294-4e6c-9355-8aa22a343b70&#x27;, mode &#x27;rb+&#x27; at 0x02FAEB78&gt;</div></td></tr><tr><td style="font-weight:bold;vertical-align:top;">session_filename</td><td style="vertical-align:top;">:</td><td><div>C:\\Users\\Chris\\Documents\\web2py\\applications\\budz\\sessions\\127.0.0.1-858174c2-7294-4e6c-9355-8aa22a343b70</div></td></tr><tr><td style="font-weight:bold;vertical-align:top;">session_hash</td><td style="vertical-align:top;">:</td><td><div>0b1c76490bbb86f26f59510bc04e4f1a</div></td></tr><tr><td style="font-weight:bold;vertical-align:top;">session_id</td><td style="vertical-align:top;">:</td><td><div>127.0.0.1-858174c2-7294-4e6c-9355-8aa22a343b70</div></td></tr><tr><td style="font-weight:bold;vertical-align:top;">session_id_name</td><td style="vertical-align:top;">:</td><td><div>session_id_budz</div></td></tr><tr><td style="font-weight:bold;vertical-align:top;">session_locked</td><td style="vertical-align:top;">:</td><td><div>True</div></td></tr><tr><td style="font-weight:bold;vertical-align:top;">session_masterapp</td><td style="vertical-align:top;">:</td><td><div>budz</div></td></tr><tr><td style="font-weight:bold;vertical-align:top;">session_new</td><td style="vertical-align:top;">:</td><td><div>False</div></td></tr><tr><td style="font-weight:bold;vertical-align:top;">session_storage_type</td><td style="vertical-align:top;">:</td><td><div>file</div></td></tr><tr><td style="font-weight:bold;vertical-align:top;">status</td><td style="vertical-align:top;">:</td><td><div>200</div></td></tr><tr><td style="font-weight:bold;vertical-align:top;">view</td><td style="vertical-align:top;">:</td><td><div>default/index.html</div></td></tr></table></div>'
tRp106
sS'locals'
p107
(dp108
S'OBJECT'
p109
S"<class 'gluon.html.OBJECT'>"
p110
sS'SQLDB'
p111
S"<class 'gluon.dal.base.DAL'>"
p112
sg99
S"<Storage {'_auth_next': '/budz/default/addstuden...'version': '41.0.2272.89', 'name': 'Chrome'}>}>}>"
p113
sS'LINK'
p114
S"<class 'gluon.html.LINK'>"
p115
sS'BR'
p116
S"<class 'gluon.html.BR'>"
p117
sS'local_import'
p118
S'<function <lambda>>'
p119
sS'OPTGROUP'
p120
S"<class 'gluon.html.OPTGROUP'>"
p121
sS'__package__'
p122
S'None'
p123
sS'PRE'
p124
S"<class 'gluon.html.PRE'>"
p125
sS'IS_INT_IN_RANGE'
p126
S"<class 'gluon.validators.IS_INT_IN_RANGE'>"
p127
sS'IS_LOWER'
p128
S"<class 'gluon.validators.IS_LOWER'>"
p129
sS'IS_STRONG'
p130
S"<class 'gluon.validators.IS_STRONG'>"
p131
sS'cache'
p132
S'<gluon.cache.Cache object>'
p133
sS'IS_IN_DB'
p134
S"<class 'gluon.validators.IS_IN_DB'>"
p135
sS'TAG'
p136
S'<gluon.html.__TAG__ object>'
p137
sS'SQLField'
p138
S"<class 'gluon.dal.objects.Field'>"
p139
sS'BODY'
p140
S"<class 'gluon.html.BODY'>"
p141
sS'IS_DATE_IN_RANGE'
p142
S"<class 'gluon.validators.IS_DATE_IN_RANGE'>"
p143
sS'TH'
p144
S"<class 'gluon.html.TH'>"
p145
sS'URL'
p146
S'<function URL>'
p147
sS'__file__'
p148
S"r'C:\\Users\\Chris\\Documents\\web2py\\applications\\budz\\models\\db.py'"
p149
sS'db'
p150
S'<DAL uri="sqlite://storage.sqlite">'
p151
sS'P'
S"<class 'gluon.html.P'>"
p152
sS'TFOOT'
p153
S"<class 'gluon.html.TFOOT'>"
p154
sS'XHTML'
p155
S"<class 'gluon.html.XHTML'>"
p156
sS'ON'
p157
S'True'
p158
sS'OL'
p159
S"<class 'gluon.html.OL'>"
p160
sS'TEXTAREA'
p161
S"<class 'gluon.html.TEXTAREA'>"
p162
sS'MENU'
p163
S"<class 'gluon.html.MENU'>"
p164
sS'LOAD'
p165
S'<function LOAD>'
p166
sS'CODE'
p167
S"<class 'gluon.html.CODE'>"
p168
sS'HTTP'
p169
S"<class 'gluon.http.HTTP'>"
p170
sS'HR'
p171
S"<class 'gluon.html.HR'>"
p172
sS'IS_DATETIME'
p173
S"<class 'gluon.validators.IS_DATETIME'>"
p174
sS'HEAD'
p175
S"<class 'gluon.html.HEAD'>"
p176
sS'LABEL'
p177
S"<class 'gluon.html.LABEL'>"
p178
sS'CLEANUP'
p179
S"<class 'gluon.validators.CLEANUP'>"
p180
sS'SELECT'
p181
S"<class 'gluon.html.SELECT'>"
p182
sS'CENTER'
p183
S"<class 'gluon.html.CENTER'>"
p184
sS'Crud'
p185
S"<class 'gluon.tools.Crud'>"
p186
sS'Auth'
p187
S"<class 'gluon.tools.Auth'>"
p188
sS'__builtins__'
p189
S"{'ArithmeticError': <type 'exceptions.ArithmeticError'>, 'AssertionError': <type 'exceptions.AssertionError'>, 'AttributeError': <type 'exceptions.AttributeError'>, 'BaseException': <type 'exceptions.BaseException'>, 'BufferError': <type 'exceptions.BufferError'>, 'BytesWarning': <type 'exceptions.BytesWarning'>, 'DeprecationWarning': <type 'exceptions.DeprecationWarning'>, 'EOFError': <type 'exceptions.EOFError'>, 'Ellipsis': Ellipsis, 'EnvironmentError': <type 'exceptions.EnvironmentError'>, ...}"
p190
sS'HTML'
p191
S"<class 'gluon.html.HTML'>"
p192
sS'SQLFORM'
p193
S"<class 'gluon.sqlhtml.SQLFORM'>"
p194
sS'EM'
p195
S"<class 'gluon.html.EM'>"
p196
sS'redirect'
p197
S'<function redirect>'
p198
sS'FIELDSET'
p199
S"<class 'gluon.html.FIELDSET'>"
p200
sS'IS_EQUAL_TO'
p201
S"<class 'gluon.validators.IS_EQUAL_TO'>"
p202
sS'embed64'
p203
S'<function embed64>'
p204
sS'IS_LIST_OF'
p205
S"<class 'gluon.validators.IS_LIST_OF'>"
p206
sS'__name__'
p207
S"'__restricted__'"
p208
sS'EMBED'
p209
S"<class 'gluon.html.EMBED'>"
p210
sS'FORM'
p211
S"<class 'gluon.html.FORM'>"
p212
sS'H2'
p213
S"<class 'gluon.html.H2'>"
p214
sS'H3'
p215
S"<class 'gluon.html.H3'>"
p216
sS'BUTTON'
p217
S"<class 'gluon.html.BUTTON'>"
p218
sS'H1'
p219
S"<class 'gluon.html.H1'>"
p220
sS'H6'
p221
S"<class 'gluon.html.H6'>"
p222
sS'H4'
p223
S"<class 'gluon.html.H4'>"
p224
sS'H5'
p225
S"<class 'gluon.html.H5'>"
p226
sS'UL'
p227
S"<class 'gluon.html.UL'>"
p228
sS'IS_UPPER'
p229
S"<class 'gluon.validators.IS_UPPER'>"
p230
sS'xmlescape'
p231
S'<function xmlescape>'
p232
sS'IS_TIME'
p233
S"<class 'gluon.validators.IS_TIME'>"
p234
sS'OPTION'
p235
S"<class 'gluon.html.OPTION'>"
p236
sS'TITLE'
p237
S"<class 'gluon.html.TITLE'>"
p238
sS'CRYPT'
p239
S"<class 'gluon.validators.CRYPT'>"
p240
sS'IS_EMPTY_OR'
p241
S"<class 'gluon.validators.IS_EMPTY_OR'>"
p242
sS'MARKMIN'
p243
S"<class 'gluon.html.MARKMIN'>"
p244
sS'INPUT'
p245
S"<class 'gluon.html.INPUT'>"
p246
sS'STRONG'
p247
S"<class 'gluon.html.STRONG'>"
p248
sS'COL'
p249
S"<class 'gluon.html.COL'>"
p250
sS'SCRIPT'
p251
S"<class 'gluon.html.SCRIPT'>"
p252
sS'TABLE'
p253
S"<class 'gluon.html.TABLE'>"
p254
sS'IS_IPV4'
p255
S"<class 'gluon.validators.IS_IPV4'>"
p256
sS'IS_LENGTH'
p257
S"<class 'gluon.validators.IS_LENGTH'>"
p258
sS'IS_IPV6'
p259
S"<class 'gluon.validators.IS_IPV6'>"
p260
sS'XML'
p261
S"<class 'gluon.html.XML'>"
p262
sS'B'
S"<class 'gluon.html.B'>"
p263
sS'IMG'
p264
S"<class 'gluon.html.IMG'>"
p265
sS'SQLTABLE'
p266
S"<class 'gluon.sqlhtml.SQLTABLE'>"
p267
sS'IS_MATCH'
p268
S"<class 'gluon.validators.IS_MATCH'>"
p269
sS'IS_ALPHANUMERIC'
p270
S"<class 'gluon.validators.IS_ALPHANUMERIC'>"
p271
sS'SPAN'
p272
S"<class 'gluon.html.SPAN'>"
p273
sS'IS_JSON'
p274
S"<class 'gluon.validators.IS_JSON'>"
p275
sS'IS_IPADDRESS'
p276
S"<class 'gluon.validators.IS_IPADDRESS'>"
p277
sS'IS_SLUG'
p278
S"<class 'gluon.validators.IS_SLUG'>"
p279
sS'BEAUTIFY'
p280
S"<class 'gluon.html.BEAUTIFY'>"
p281
sS'META'
p282
S"<class 'gluon.html.META'>"
p283
sS'IS_DATE'
p284
S"<class 'gluon.validators.IS_DATE'>"
p285
sS'IS_EMAIL'
p286
S"<class 'gluon.validators.IS_EMAIL'>"
p287
sS'IS_NOT_EMPTY'
p288
S"<class 'gluon.validators.IS_NOT_EMPTY'>"
p289
sg56
S"<Storage {'_vars': None, 'function': 'index', 'c...Chris\\\\Documents\\\\web2py\\\\applications\\\\budz\\\\'}>"
p290
sS'TBODY'
p291
S"<class 'gluon.html.TBODY'>"
p292
sS'CAT'
p293
S"<class 'gluon.html.CAT'>"
p294
sS'Field'
p295
S"<class 'gluon.dal.objects.Field'>"
p296
sS'IS_LIST_OF_EMAILS'
p297
S"<class 'gluon.validators.IS_LIST_OF_EMAILS'>"
p298
sS'DIV'
p299
S"<class 'gluon.html.DIV'>"
p300
sS'LEGEND'
p301
S"<class 'gluon.html.LEGEND'>"
p302
sS'COLGROUP'
p303
S"<class 'gluon.html.COLGROUP'>"
p304
sS'DAL'
p305
S"<class 'gluon.dal.base.DAL'>"
p306
sS'ASSIGNJS'
p307
S'<function ASSIGNJS>'
p308
sS'TR'
p309
S"<class 'gluon.html.TR'>"
p310
sS'LI'
p311
S"<class 'gluon.html.LI'>"
p312
sS'IFRAME'
p313
S"<class 'gluon.html.IFRAME'>"
p314
sS'TD'
p315
S"<class 'gluon.html.TD'>"
p316
sS'IS_URL'
p317
S"<class 'gluon.validators.IS_URL'>"
p318
sS'A'
S"<class 'gluon.html.A'>"
p319
sS'STYLE'
p320
S"<class 'gluon.html.STYLE'>"
p321
sS'IS_DATETIME_IN_RANGE'
p322
S"<class 'gluon.validators.IS_DATETIME_IN_RANGE'>"
p323
sS'IS_IMAGE'
p324
S"<class 'gluon.validators.IS_IMAGE'>"
p325
sS'I'
S"<class 'gluon.html.I'>"
p326
sS'IS_NOT_IN_DB'
p327
S"<class 'gluon.validators.IS_NOT_IN_DB'>"
p328
sg105
S"<Storage {'body': <cStringIO.StringO object at 0...a> at 0x075FDB70>, 'view': 'default/index.html'}>"
p329
sS'THEAD'
p330
S"<class 'gluon.html.THEAD'>"
p331
sS'ANY_OF'
p332
S"<class 'gluon.validators.ANY_OF'>"
p333
sS'IS_NULL_OR'
p334
S"<class 'gluon.validators.IS_EMPTY_OR'>"
p335
sS'IS_FLOAT_IN_RANGE'
p336
S"<class 'gluon.validators.IS_FLOAT_IN_RANGE'>"
p337
sS'IS_EXPR'
p338
S"<class 'gluon.validators.IS_EXPR'>"
p339
sS'IS_IN_SET'
p340
S"<class 'gluon.validators.IS_IN_SET'>"
p341
sS'IS_UPLOAD_FILENAME'
p342
S"<class 'gluon.validators.IS_UPLOAD_FILENAME'>"
p343
sS'IS_DECIMAL_IN_RANGE'
p344
S"<class 'gluon.validators.IS_DECIMAL_IN_RANGE'>"
p345
sS'TT'
p346
S"<class 'gluon.html.TT'>"
p347
sS'T'
S'<gluon.languages.translator object>'
p348
sssS'traceback'
p349
S'Traceback (most recent call last):\n  File "gluon/restricted.py", line 224, in restricted\n  File "C:\\Users\\Chris\\Documents\\web2py\\applications\\budz\\models\\db.py", line 44, in <module>\n    from gluon.tools import Auth, Crud, mail, os, Service, PluginManager\nImportError: cannot import name mail\n'
p350
s.