(dp1
S'output'
p2
S"<type 'exceptions.SyntaxError'> Field tutor does not belong to the table"
p3
sS'layer'
p4
S'C:\\Users\\Chris\\Documents\\web2py\\applications\\budz\\controllers/default.py'
p5
sS'code'
p6
S'# -*- coding: utf-8 -*-\n# this file is released under public domain and you can use without limitations\n\n#########################################################################\n## This is a sample controller\n## - index is the default action of any application\n## - user is required for authentication and authorization\n## - download is for downloading files uploaded in the db (does streaming)\n## - api is an example of Hypermedia API support and access control\n#########################################################################\n\ndef get_username():\n    name = \'Nobody\'\n    if auth.user:\n        name = auth.user.first_name+\'_\'+auth.user.last_name[0]\n    return name\n\ndef index():\n    \n    posts = db().select(db.tutorP.ALL)\n    return dict(posts = posts)\n\ndef index3():\n    \n    posts = db().select(db.tutorP.ALL)\n    return dict(posts = posts)\n\n\ndef index2():\n    """\n    example action using the internationalization operator T and flash\n    rendered by views/default/index.html or views/generic.html\n\n    if you need a simple wiki simply replace the two lines below with:\n    return auth.wiki()\n    """\n    posts = db().select(db.tutorP.ALL)\n    return dict(posts = posts)\n\ndef profile():\n    author = auth.user\n    userprofiles=db().select(db.profile.ALL)\n    return dict(userprofiles=userprofiles, author = author)\n\ndef profiles():\n    user = request.args(0)\n    theProfile = db(db.profile.name == user).select().first()\n    author = auth.user\n    userprofiles=db().select(db.profile.ALL)\n    return dict(user = theProfile, userprofiles=userprofiles, author = author)\n\ndef profiles2():\n    user = request.args(0)\n    theProfile = db(db.profile.name == user).select().first()\n    author = auth.user\n    userprofiles=db().select(db.profile.ALL)\n    return dict(user = theProfile, userprofiles=userprofiles, author = author)\n\ndef editprofile():\n    \n    userprofiles = SQLFORM(db.profile)\n    if userprofiles.process().accepted:\n        # Successful processing.\n        session.flash = T("Thanks for editing your Profile")\n        newPage = auth.user.first_name+\'_\'+auth.user.last_name[0]\n        userName = name=auth.user.first_name+\' \'+auth.user.last_name[0]+\'.\'\n        db.profile.insert(name=userName)\n        redirect(URL(\'default\', \'profile\', args=newPage ))\n    return dict(userprofiles = userprofiles)\n\n\n\ndef editprofile2():\n    #if auth.user.tutor=True:\n     #   redirect(URL(\'default\', \'index\'))\n        \n    title = request.args(0) or \'\'\n    \n    userprofiles = SQLFORM.factory(\n        Field(\'subject1\', label = \'Subject 1\', requires = IS_IN_SET(CATEGORY, error_message="choose a subject!"),default ="-please choose a subject-", required = True),\n        Field(\'subject2\', label = \'Subject 2 (optional)\', requires = IS_IN_SET(CATEGORY), default ="-please choose a subject-", required = False),\n        Field(\'subject3\', label = \'Subject 3 (optional)\', requires = IS_IN_SET(CATEGORY), default ="-please choose a subject-", required = False),\n        Field(\'price\', requires = IS_FLOAT_IN_RANGE(0, 100.00, error_message=\'The price should be in the range 0..100\')),\n        Field(\'bio\', \'text\', label = \'Service Description\', requires = IS_NOT_EMPTY("Please enter a description of your services.")),\n        Field(\'bio2\', \'text\', label = \'Service Description\', requires = IS_NOT_EMPTY("Please enter a description of your services.")),\n        Field(\'picture\', label = \'Profile Picture\')\n    )\n    \n    if userprofiles.process().accepted:\n        newPage = auth.user.first_name+\'_\'+auth.user.last_name[0]\n        userName = name=auth.user.first_name+\' \'+auth.user.last_name[0]+\'.\'\n        db.profile.insert(name=userName, date_created=datetime.utcnow(), bio=userprofiles.vars.bio,\n                        subject1=userprofiles.vars.subject1, subject2=userprofiles.vars.subject2, subject3=userprofiles.vars.subject3, price=userprofiles.vars.price, picture=userprofiles.vars.picture)\n        redirect(URL(\'default\', \'profile\', args=newPage))\n\n    return dict(userprofiles = userprofiles)\n\ndef tutorposts():\n    author = auth.user\n    #userprofiles=db().select(db.profile.college)\n    posts = db().select(db.profile.ALL)\n    return dict(posts = posts, author = author)\n\ndef tutorposts2():\n\n    author = auth.user\n    #userprofiles=db().select(db.profile.college)\n    posts = db().select(db.tutorP.ALL)\n    return dict(posts = posts, author = author)\n\n\ndef studentposts():\n    #userprofiles=db().select(db.profile.image)\n    posts = db().select(db.studentP.ALL)\n    return dict(posts = posts)#,userprofile = userprofile)\n\n\ndef addtutor():   \n    title = request.args(0) or \'\'\n    \n    form = SQLFORM.factory(\n        Field(\'subject1\', label = \'Subject 1\', requires = IS_IN_SET(CATEGORY, zero="-please choose a subject-", error_message="choose a subject!"), required = True),\n        Field(\'subject2\', label = \'Subject 2 (optional)\', requires = IS_IN_SET(CATEGORY, zero="-please choose a subject-"), required = False),\n        Field(\'subject3\', label = \'Subject 3 (optional)\', requires = IS_IN_SET(CATEGORY, zero="-please choose a subject-"), required = False),\n        Field(\'major\', label = \'Major\', requires = IS_IN_SET(CATEGORY, zero="-please choose a Major-"), required = False),\n        Field(\'major\', label = \'Major\', requires = IS_IN_SET(CATEGORY, zero="-please choose a Major-"), required = False),\n        Field(\'student_status\', label = \'Year\', requires = IS_IN_SET(YEAR, zero = \'~Your level of education~\'), required = True),\n        Field(\'college\', label = \'College\', requires = IS_IN_SET(COLLEGES, zero="-please choose a college-"), required = False),\n        Field(\'price\', requires = IS_IN_SET(PRICERANGE), default = \'Alternative Exchange\'),\n        Field(\'body\', \'text\', label = \'Service Description\', requires = IS_NOT_EMPTY("Please enter a description of your services."))\n    )\n    \n    if form.process().accepted:\n        tutName = auth.user.first_name+\'_\'+auth.user.last_name[0]\n        fancyName = auth.user.first_name+\' \'+auth.user.last_name[0]+\'.\'\n        auth.user.tutor=True\n        db.auth_user.insert(tutor=True)\n        db.profile.insert(name=tutName, nice_name=fancyName, date_created=datetime.utcnow(), body=form.vars.body,     \n                          major=form.vars.major,college=form.vars.college,student_status=form.vars.student_status,\n                          subject1=form.vars.subject1, subject2=form.vars.subject2, subject3=form.vars.subject3, \n                          price=form.vars.price, picture=auth.user.picture )\n        redirect(URL(\'default\', \'index\', args=auth.user.first_name+auth.user.last_name[0]))\n    \n    return dict(form = form)\n\ndef addtutor2():   \n    # if auth.user.tutor==True:\n     #   redirect(URL(\'default\', \'profile\', args=newPage))\n      #  auth.user.tutor=True\n    title = request.args(0) or \'\'\n    form = SQLFORM.factory(\n        Field(\'subject1\', label = \'Subject 1\', requires = IS_IN_SET(CATEGORY, error_message="choose a subject!"),default ="-please choose a subject-", required = True),\n        Field(\'subject2\', label = \'Subject 2 (optional)\', requires = IS_IN_SET(CATEGORY), default ="-please choose a subject-", required = False),\n        Field(\'subject3\', label = \'Subject 3 (optional)\', requires = IS_IN_SET(CATEGORY), default ="-please choose a subject-", required = False),\n        Field(\'price\', requires =  IS_IN_SET(PRICERANGE)),\n        Field(\'body\', \'text\', label = \'Service Description\', requires = IS_NOT_EMPTY("Please enter a description of your services.")))\n    \n    if form.process().accepted:\n        tutName = auth.user.first_name+\'_\'+auth.user.last_name[0]\n        newPage = db.tutorP.insert(name=auth.user.first_name+\' \'+auth.user.last_name[0]+\'.\')\n        db.profile.insert(name=tutName, nice_name=newPage, date_created=datetime.utcnow(), body=form.vars.body,\n                        subject1=form.vars.subject1, subject2=form.vars.subject2, subject3=form.vars.subject3, price=form.vars.price, picture=auth.user.picture)\n        redirect(URL(\'default\', \'index\', args=auth.user.first_name+auth.user.last_name[0]))\n    \n    return dict(form = form)\n\n\ndef addstudent():   \n     title = request.args(0) or \'\'\n    \n     form = SQLFORM.factory(\n        Field(\'subject1\', label = \'Subject 1\', requires = IS_IN_SET(CATEGORY, zero="-please choose a subject-", error_message="choose a subject!"), required = True),\n       Field(\'major\', label = \'Major\', requires = IS_IN_SET(CATEGORY, zero="-please choose a Major-"), required = False),\n        Field(\'student_status\', label = \'Year\', requires = IS_IN_SET(YEAR, zero = \'~Your level of education~\'), required = True),\n        Field(\'college\', label = \'College\', requires = IS_IN_SET(COLLEGES, zero="-please choose a college-"), required = False),\n        Field(\'price\', requires = IS_IN_SET(PRICERANGE), default = \'Alternative Exchange\'),\n        Field(\'body\', \'text\', label = \'Service Description\', requires = IS_NOT_EMPTY("Please enter a description of your services.")))\n    \n     if form.process().accepted:\n        tutName = auth.user.first_name+\'_\'+auth.user.last_name[0]\n        fancyName = auth.user.first_name+\' \'+auth.user.last_name[0]+\'.\'\n        db.studentP.insert(name=tutName, nice_name=fancyName, date_created=datetime.utcnow(), body=form.vars.body,     major=form.vars.major,college=form.vars.college,student_status=form.vars.student_status,subject1=form.vars.subject1, price=form.vars.price, picture=auth.user.picture)\n        redirect(URL(\'default\', \'index\', args=auth.user.first_name+auth.user.last_name[0]))\n    \n     return dict(form = form)\n\n\n    \n    \n    \n    \n\ndef user():\n    """\n    exposes:\n    http://..../[app]/default/user/login\n    http://..../[app]/default/user/logout\n    http://..../[app]/default/user/register\n    http://..../[app]/default/user/profile\n    http://..../[app]/default/user/retrieve_password\n    http://..../[app]/default/user/change_password\n    http://..../[app]/default/user/manage_users (requires membership in\n    use @auth.requires_login()\n        @auth.requires_membership(\'group name\')\n        @auth.requires_permission(\'read\',\'table name\',record_id)\n    to decorate functions that need access control\n    """\n    return dict(form=auth())\n\n\n@cache.action()\ndef download():\n    """\n    allows downloading of uploaded files\n    http://..../[app]/default/download/[filename]\n    """\n    return response.download(request, db)\n\n\ndef call():\n    """\n    exposes services. for example:\n    http://..../[app]/default/call/jsonrpc\n    decorate with @services.jsonrpc the functions to expose\n    supports xml, json, xmlrpc, jsonrpc, amfrpc, rss, csv\n    """\n    return service()\n\n\n@auth.requires_login() \ndef api():\n    """\n    this is example of API with access control\n    WEB2PY provides Hypermedia API (Collection+JSON) Experimental\n    """\n    from gluon.contrib.hypermedia import Collection\n    rules = {\n        \'<tablename>\': {\'GET\':{},\'POST\':{},\'PUT\':{},\'DELETE\':{}},\n        }\n    return Collection(db).process(request,response,rules)\n\nresponse._vars=response._caller(addtutor)\n'
p7
sS'snapshot'
p8
(dp9
S'exception'
p10
(dp11
S'__getslice__'
p12
S"<method-wrapper '__getslice__' of exceptions.SyntaxError object>"
p13
sS'text'
p14
S'None'
p15
sS'__str__'
p16
S"<method-wrapper '__str__' of exceptions.SyntaxError object>"
p17
sS'__reduce__'
p18
S'<built-in method __reduce__ of exceptions.SyntaxError object>'
p19
sS'__dict__'
p20
S'{}'
p21
sS'__sizeof__'
p22
S'<built-in method __sizeof__ of exceptions.SyntaxError object>'
p23
sS'__init__'
p24
S"<method-wrapper '__init__' of exceptions.SyntaxError object>"
p25
sS'__setattr__'
p26
S"<method-wrapper '__setattr__' of exceptions.SyntaxError object>"
p27
sS'__reduce_ex__'
p28
S'<built-in method __reduce_ex__ of exceptions.SyntaxError object>'
p29
sS'__new__'
p30
S'<built-in method __new__ of type object>'
p31
sS'__format__'
p32
S'<built-in method __format__ of exceptions.SyntaxError object>'
p33
sS'__class__'
p34
S"<type 'exceptions.SyntaxError'>"
p35
sS'filename'
p36
S'None'
p37
sS'lineno'
p38
S'None'
p39
sS'msg'
p40
S"'Field tutor does not belong to the table'"
p41
sS'__doc__'
p42
S"'Invalid syntax.'"
p43
sS'__getitem__'
p44
S"<method-wrapper '__getitem__' of exceptions.SyntaxError object>"
p45
sS'__setstate__'
p46
S'<built-in method __setstate__ of exceptions.SyntaxError object>'
p47
sS'__getattribute__'
p48
S"<method-wrapper '__getattribute__' of exceptions.SyntaxError object>"
p49
sS'print_file_and_line'
p50
S'None'
p51
sS'args'
p52
S"('Field tutor does not belong to the table',)"
p53
sS'__subclasshook__'
p54
S'<built-in method __subclasshook__ of type object>'
p55
sS'offset'
p56
S'None'
p57
sS'__unicode__'
p58
S'<built-in method __unicode__ of exceptions.SyntaxError object>'
p59
sS'__delattr__'
p60
S"<method-wrapper '__delattr__' of exceptions.SyntaxError object>"
p61
sS'__repr__'
p62
S"<method-wrapper '__repr__' of exceptions.SyntaxError object>"
p63
sS'__hash__'
p64
S"<method-wrapper '__hash__' of exceptions.SyntaxError object>"
p65
ssS'evalue'
p66
S'Field tutor does not belong to the table'
p67
sS'request'
p68
cgluon.html
XML_unpickle
p69
(S's\x8ap\x00\x00<div><table><tr><td style="font-weight:bold;vertical-align:top;">ajax</td><td style="vertical-align:top;">:</td><td><div>False</div></td></tr><tr><td style="font-weight:bold;vertical-align:top;">application</td><td style="vertical-align:top;">:</td><td><div>budz</div></td></tr><tr><td style="font-weight:bold;vertical-align:top;">args</td><td style="vertical-align:top;">:</td><td><div><table></table></div></td></tr><tr><td style="font-weight:bold;vertical-align:top;">cid</td><td style="vertical-align:top;">:</td><td><div>None</div></td></tr><tr><td style="font-weight:bold;vertical-align:top;">client</td><td style="vertical-align:top;">:</td><td><div>127.0.0.1</div></td></tr><tr><td style="font-weight:bold;vertical-align:top;">controller</td><td style="vertical-align:top;">:</td><td><div>default</div></td></tr><tr><td style="font-weight:bold;vertical-align:top;">cookies</td><td style="vertical-align:top;">:</td><td><div><table><tr><td style="font-weight:bold;vertical-align:top;">session_id_admin</td><td style="vertical-align:top;">:</td><td><div>127.0.0.1-5c27e871-16e7-457b-adc4-122eea296f32<table><tr><td style="font-weight:bold;vertical-align:top;">comment</td><td style="vertical-align:top;">:</td><td><div></div></td></tr><tr><td style="font-weight:bold;vertical-align:top;">domain</td><td style="vertical-align:top;">:</td><td><div></div></td></tr><tr><td style="font-weight:bold;vertical-align:top;">expires</td><td style="vertical-align:top;">:</td><td><div></div></td></tr><tr><td style="font-weight:bold;vertical-align:top;">httponly</td><td style="vertical-align:top;">:</td><td><div></div></td></tr><tr><td style="font-weight:bold;vertical-align:top;">max-age</td><td style="vertical-align:top;">:</td><td><div></div></td></tr><tr><td style="font-weight:bold;vertical-align:top;">path</td><td style="vertical-align:top;">:</td><td><div></div></td></tr><tr><td style="font-weight:bold;vertical-align:top;">secure</td><td style="vertical-align:top;">:</td><td><div></div></td></tr><tr><td style="font-weight:bold;vertical-align:top;">version</td><td style="vertical-align:top;">:</td><td><div></div></td></tr></table></div></td></tr><tr><td style="font-weight:bold;vertical-align:top;">session_id_bbbbboard</td><td style="vertical-align:top;">:</td><td><div>127.0.0.1-39df9f02-23e3-464f-89c6-8c8e84bf157d<table><tr><td style="font-weight:bold;vertical-align:top;">comment</td><td style="vertical-align:top;">:</td><td><div></div></td></tr><tr><td style="font-weight:bold;vertical-align:top;">domain</td><td style="vertical-align:top;">:</td><td><div></div></td></tr><tr><td style="font-weight:bold;vertical-align:top;">expires</td><td style="vertical-align:top;">:</td><td><div></div></td></tr><tr><td style="font-weight:bold;vertical-align:top;">httponly</td><td style="vertical-align:top;">:</td><td><div></div></td></tr><tr><td style="font-weight:bold;vertical-align:top;">max-age</td><td style="vertical-align:top;">:</td><td><div></div></td></tr><tr><td style="font-weight:bold;vertical-align:top;">path</td><td style="vertical-align:top;">:</td><td><div></div></td></tr><tr><td style="font-weight:bold;vertical-align:top;">secure</td><td style="vertical-align:top;">:</td><td><div></div></td></tr><tr><td style="font-weight:bold;vertical-align:top;">version</td><td style="vertical-align:top;">:</td><td><div></div></td></tr></table></div></td></tr><tr><td style="font-weight:bold;vertical-align:top;">session_id_budz</td><td style="vertical-align:top;">:</td><td><div>127.0.0.1-c91786e8-0c51-4a9a-a075-2b058ba78917<table><tr><td style="font-weight:bold;vertical-align:top;">comment</td><td style="vertical-align:top;">:</td><td><div></div></td></tr><tr><td style="font-weight:bold;vertical-align:top;">domain</td><td style="vertical-align:top;">:</td><td><div></div></td></tr><tr><td style="font-weight:bold;vertical-align:top;">expires</td><td style="vertical-align:top;">:</td><td><div></div></td></tr><tr><td style="font-weight:bold;vertical-align:top;">httponly</td><td style="vertical-align:top;">:</td><td><div></div></td></tr><tr><td style="font-weight:bold;vertical-align:top;">max-age</td><td style="vertical-align:top;">:</td><td><div></div></td></tr><tr><td style="font-weight:bold;vertical-align:top;">path</td><td style="vertical-align:top;">:</td><td><div></div></td></tr><tr><td style="font-weight:bold;vertical-align:top;">secure</td><td style="vertical-align:top;">:</td><td><div></div></td></tr><tr><td style="font-weight:bold;vertical-align:top;">version</td><td style="vertical-align:top;">:</td><td><div></div></td></tr></table></div></td></tr><tr><td style="font-weight:bold;vertical-align:top;">session_id_crowdgrader1</td><td style="vertical-align:top;">:</td><td><div>127.0.0.1-42c35818-8802-414c-b48a-43f5ec61000b<table><tr><td style="font-weight:bold;vertical-align:top;">comment</td><td style="vertical-align:top;">:</td><td><div></div></td></tr><tr><td style="font-weight:bold;vertical-align:top;">domain</td><td style="vertical-align:top;">:</td><td><div></div></td></tr><tr><td style="font-weight:bold;vertical-align:top;">expires</td><td style="vertical-align:top;">:</td><td><div></div></td></tr><tr><td style="font-weight:bold;vertical-align:top;">httponly</td><td style="vertical-align:top;">:</td><td><div></div></td></tr><tr><td style="font-weight:bold;vertical-align:top;">max-age</td><td style="vertical-align:top;">:</td><td><div></div></td></tr><tr><td style="font-weight:bold;vertical-align:top;">path</td><td style="vertical-align:top;">:</td><td><div></div></td></tr><tr><td style="font-weight:bold;vertical-align:top;">secure</td><td style="vertical-align:top;">:</td><td><div></div></td></tr><tr><td style="font-weight:bold;vertical-align:top;">version</td><td style="vertical-align:top;">:</td><td><div></div></td></tr></table></div></td></tr><tr><td style="font-weight:bold;vertical-align:top;">session_id_welcome</td><td style="vertical-align:top;">:</td><td><div>127.0.0.1-95da9178-4439-4429-8944-803a2e34f55a<table><tr><td style="font-weight:bold;vertical-align:top;">comment</td><td style="vertical-align:top;">:</td><td><div></div></td></tr><tr><td style="font-weight:bold;vertical-align:top;">domain</td><td style="vertical-align:top;">:</td><td><div></div></td></tr><tr><td style="font-weight:bold;vertical-align:top;">expires</td><td style="vertical-align:top;">:</td><td><div></div></td></tr><tr><td style="font-weight:bold;vertical-align:top;">httponly</td><td style="vertical-align:top;">:</td><td><div></div></td></tr><tr><td style="font-weight:bold;vertical-align:top;">max-age</td><td style="vertical-align:top;">:</td><td><div></div></td></tr><tr><td style="font-weight:bold;vertical-align:top;">path</td><td style="vertical-align:top;">:</td><td><div></div></td></tr><tr><td style="font-weight:bold;vertical-align:top;">secure</td><td style="vertical-align:top;">:</td><td><div></div></td></tr><tr><td style="font-weight:bold;vertical-align:top;">version</td><td style="vertical-align:top;">:</td><td><div></div></td></tr></table></div></td></tr></table></div></td></tr><tr><td style="font-weight:bold;vertical-align:top;">env</td><td style="vertical-align:top;">:</td><td><div><table><tr><td style="font-weight:bold;vertical-align:top;">CONTENT_LENGTH</td><td style="vertical-align:top;">:</td><td><div>1144</div></td></tr><tr><td style="font-weight:bold;vertical-align:top;">CONTENT_TYPE</td><td style="vertical-align:top;">:</td><td><div>multipart/form-data; boundary=----WebKitFormBoundaryqG1DGOFMfzOKLj9j</div></td></tr><tr><td style="font-weight:bold;vertical-align:top;">HTTP_ACCEPT</td><td style="vertical-align:top;">:</td><td><div>text/html,application/xhtml+xml,application/xml;q=0.9,image/webp,*/*;q=0.8</div></td></tr><tr><td style="font-weight:bold;vertical-align:top;">HTTP_ACCEPT_ENCODING</td><td style="vertical-align:top;">:</td><td><div>gzip, deflate</div></td></tr><tr><td style="font-weight:bold;vertical-align:top;">HTTP_ACCEPT_LANGUAGE</td><td style="vertical-align:top;">:</td><td><div>en-US,en;q=0.8</div></td></tr><tr><td style="font-weight:bold;vertical-align:top;">HTTP_CACHE_CONTROL</td><td style="vertical-align:top;">:</td><td><div>max-age=0</div></td></tr><tr><td style="font-weight:bold;vertical-align:top;">HTTP_CONNECTION</td><td style="vertical-align:top;">:</td><td><div>keep-alive</div></td></tr><tr><td style="font-weight:bold;vertical-align:top;">HTTP_CONTENT_LENGTH</td><td style="vertical-align:top;">:</td><td><div>1144</div></td></tr><tr><td style="font-weight:bold;vertical-align:top;">HTTP_CONTENT_TYPE</td><td style="vertical-align:top;">:</td><td><div>multipart/form-data; boundary=----WebKitFormBoundaryqG1DGOFMfzOKLj9j</div></td></tr><tr><td style="font-weight:bold;vertical-align:top;">HTTP_COOKIE</td><td style="vertical-align:top;">:</td><td><div>session_id_crowdgrader1=127.0.0.1-42c35818-8802-414c-b48a-43f5ec61000b; session_id_bbbbboard=127.0.0.1-39df9f02-23e3-464f-89c6-8c8e84bf157d; session_id_welcome=127.0.0.1-95da9178-4439-4429-8944-803a2e34f55a; session_id_admin=127.0.0.1-5c27e871-16e7-457b-adc4-122eea296f32; session_id_budz=127.0.0.1-c91786e8-0c51-4a9a-a075-2b058ba78917</div></td></tr><tr><td style="font-weight:bold;vertical-align:top;">HTTP_HOST</td><td style="vertical-align:top;">:</td><td><div>127.0.0.1:8000</div></td></tr><tr><td style="font-weight:bold;vertical-align:top;">HTTP_ORIGIN</td><td style="vertical-align:top;">:</td><td><div>http://127.0.0.1:8000</div></td></tr><tr><td style="font-weight:bold;vertical-align:top;">HTTP_REFERER</td><td style="vertical-align:top;">:</td><td><div>http://127.0.0.1:8000/budz/default/addtutor</div></td></tr><tr><td style="font-weight:bold;vertical-align:top;">HTTP_USER_AGENT</td><td style="vertical-align:top;">:</td><td><div>Mozilla/5.0 (Windows NT 6.3; WOW64) AppleWebKit/537.36 (KHTML, like Gecko) Chrome/41.0.2272.89 Safari/537.36</div></td></tr><tr><td style="font-weight:bold;vertical-align:top;">PATH_INFO</td><td style="vertical-align:top;">:</td><td><div>/budz/default/addtutor</div></td></tr><tr><td style="font-weight:bold;vertical-align:top;">QUERY_STRING</td><td style="vertical-align:top;">:</td><td><div></div></td></tr><tr><td style="font-weight:bold;vertical-align:top;">REMOTE_ADDR</td><td style="vertical-align:top;">:</td><td><div>127.0.0.1</div></td></tr><tr><td style="font-weight:bold;vertical-align:top;">REMOTE_PORT</td><td style="vertical-align:top;">:</td><td><div>58496</div></td></tr><tr><td style="font-weight:bold;vertical-align:top;">REQUEST_METHOD</td><td style="vertical-align:top;">:</td><td><div>POST</div></td></tr><tr><td style="font-weight:bold;vertical-align:top;">SCRIPT_NAME</td><td style="vertical-align:top;">:</td><td><div></div></td></tr><tr><td style="font-weight:bold;vertical-align:top;">SERVER_NAME</td><td style="vertical-align:top;">:</td><td><div>TheBigBlack</div></td></tr><tr><td style="font-weight:bold;vertical-align:top;">SERVER_PORT</td><td style="vertical-align:top;">:</td><td><div>8000</div></td></tr><tr><td style="font-weight:bold;vertical-align:top;">SERVER_PROTOCOL</td><td style="vertical-align:top;">:</td><td><div>HTTP/1.1</div></td></tr><tr><td style="font-weight:bold;vertical-align:top;">SERVER_SOFTWARE</td><td style="vertical-align:top;">:</td><td><div>Rocket 1.2.6</div></td></tr><tr><td style="font-weight:bold;vertical-align:top;">app_folders</td><td style="vertical-align:top;">:</td><td><div>set([&#x27;C:\\\\Users\\\\Chris\\\\Documents\\\\web2py\\\\applications\\\\admin\\\\&#x27;, &#x27;C:\\\\Users\\\\Chris\\\\Documents\\\\web2py\\\\applications\\\\welcome\\\\&#x27;, &#x27;C:\\\\Users\\\\Chris\\\\Documents\\\\web2py\\\\applications\\\\budz\\\\&#x27;])</div></td></tr><tr><td style="font-weight:bold;vertical-align:top;">applications_parent</td><td style="vertical-align:top;">:</td><td><div>C:\\Users\\Chris\\Documents\\web2py</div></td></tr><tr><td style="font-weight:bold;vertical-align:top;">cmd_args</td><td style="vertical-align:top;">:</td><td><div><table></table></div></td></tr><tr><td style="font-weight:bold;vertical-align:top;">cmd_options</td><td style="vertical-align:top;">:</td><td><div>&lt;Values at 0x2f4cb20: {&#x27;verbose&#x27;: False, &#x27;ip&#x27;: &#x27;127.0.0.1&#x27;, &#x27;debuglevel&#x27;: 30, &#x27;with_scheduler&#x27;: False, &#x27;ips&#x27;: [], &#x27;shutdown_timeout&#x27;: 5, &#x27;taskbar&#x27;: False, &#x27;with_coverage&#x27;: False, &#x27;scheduler_groups&#x27;: None, &#x27;port&#x27;: 8000, &#x27;maxthreads&#x27;: None, &#x27;softcron&#x27;: False, &#x27;server_name&#x27;: &#x27;TheBigBlack&#x27;, &#x27;bpython&#x27;: False, &#x27;nogui&#x27;: False, &#x27;pid_filename&#x27;: &#x27;httpserver.pid&#x27;, &#x27;extcron&#x27;: False, &#x27;runcron&#x27;: False, &#x27;run_system_tests&#x27;: False, &#x27;test&#x27;: None, &#x27;folder&#x27;: &#x27;C:\\\\Users\\\\Chris\\\\Documents\\\\web2py&#x27;, &#x27;config&#x27;: &#x27;&#x27;, &#x27;minthreads&#x27;: None, &#x27;shell&#x27;: None, &#x27;run&#x27;: &#x27;&#x27;, &#x27;log_filename&#x27;: &#x27;httpserver.log&#x27;, &#x27;profiler_dir&#x27;: None, &#x27;args&#x27;: [&#x27;&#x27;], &#x27;socket_timeout&#x27;: 5, &#x27;ssl_ca_certificate&#x27;: None, &#x27;scheduler&#x27;: None, &#x27;interfaces&#x27;: None, &#x27;ssl_private_key&#x27;: &#x27;&#x27;, &#x27;gae&#x27;: None, &#x27;password&#x27;: &#x27;&lt;ask&gt;&#x27;, &#x27;request_queue_size&#x27;: 5, &#x27;ssl_certificate&#x27;: &#x27;&#x27;, &#x27;cronjob&#x27;: False, &#x27;numthreads&#x27;: None, &#x27;quiet&#x27;: False, &#x27;import_models&#x27;: False, &#x27;timeout&#x27;: 10, &#x27;plain&#x27;: False, &#x27;nobanner&#x27;: False}&gt;</div></td></tr><tr><td style="font-weight:bold;vertical-align:top;">content_length</td><td style="vertical-align:top;">:</td><td><div>1144</div></td></tr><tr><td style="font-weight:bold;vertical-align:top;">content_type</td><td style="vertical-align:top;">:</td><td><div>multipart/form-data; boundary=----WebKitFormBoundaryqG1DGOFMfzOKLj9j</div></td></tr><tr><td style="font-weight:bold;vertical-align:top;">db_sessions</td><td style="vertical-align:top;">:</td><td><div>set([])</div></td></tr><tr><td style="font-weight:bold;vertical-align:top;">debugging</td><td style="vertical-align:top;">:</td><td><div>False</div></td></tr><tr><td style="font-weight:bold;vertical-align:top;">gluon_parent</td><td style="vertical-align:top;">:</td><td><div>C:\\Users\\Chris\\Documents\\web2py</div></td></tr><tr><td style="font-weight:bold;vertical-align:top;">http_accept</td><td style="vertical-align:top;">:</td><td><div>text/html,application/xhtml+xml,application/xml;q=0.9,image/webp,*/*;q=0.8</div></td></tr><tr><td style="font-weight:bold;vertical-align:top;">http_accept_encoding</td><td style="vertical-align:top;">:</td><td><div>gzip, deflate</div></td></tr><tr><td style="font-weight:bold;vertical-align:top;">http_accept_language</td><td style="vertical-align:top;">:</td><td><div>en-US,en;q=0.8</div></td></tr><tr><td style="font-weight:bold;vertical-align:top;">http_cache_control</td><td style="vertical-align:top;">:</td><td><div>max-age=0</div></td></tr><tr><td style="font-weight:bold;vertical-align:top;">http_connection</td><td style="vertical-align:top;">:</td><td><div>keep-alive</div></td></tr><tr><td style="font-weight:bold;vertical-align:top;">http_content_length</td><td style="vertical-align:top;">:</td><td><div>1144</div></td></tr><tr><td style="font-weight:bold;vertical-align:top;">http_content_type</td><td style="vertical-align:top;">:</td><td><div>multipart/form-data; boundary=----WebKitFormBoundaryqG1DGOFMfzOKLj9j</div></td></tr><tr><td style="font-weight:bold;vertical-align:top;">http_cookie</td><td style="vertical-align:top;">:</td><td><div>session_id_crowdgrader1=127.0.0.1-42c35818-8802-414c-b48a-43f5ec61000b; session_id_bbbbboard=127.0.0.1-39df9f02-23e3-464f-89c6-8c8e84bf157d; session_id_welcome=127.0.0.1-95da9178-4439-4429-8944-803a2e34f55a; session_id_admin=127.0.0.1-5c27e871-16e7-457b-adc4-122eea296f32; session_id_budz=127.0.0.1-c91786e8-0c51-4a9a-a075-2b058ba78917</div></td></tr><tr><td style="font-weight:bold;vertical-align:top;">http_host</td><td style="vertical-align:top;">:</td><td><div>127.0.0.1:8000</div></td></tr><tr><td style="font-weight:bold;vertical-align:top;">http_origin</td><td style="vertical-align:top;">:</td><td><div>http://127.0.0.1:8000</div></td></tr><tr><td style="font-weight:bold;vertical-align:top;">http_referer</td><td style="vertical-align:top;">:</td><td><div>http://127.0.0.1:8000/budz/default/addtutor</div></td></tr><tr><td style="font-weight:bold;vertical-align:top;">http_user_agent</td><td style="vertical-align:top;">:</td><td><div>Mozilla/5.0 (Windows NT 6.3; WOW64) AppleWebKit/537.36 (KHTML, like Gecko) Chrome/41.0.2272.89 Safari/537.36</div></td></tr><tr><td style="font-weight:bold;vertical-align:top;">is_jython</td><td style="vertical-align:top;">:</td><td><div>False</div></td></tr><tr><td style="font-weight:bold;vertical-align:top;">is_pypy</td><td style="vertical-align:top;">:</td><td><div>False</div></td></tr><tr><td style="font-weight:bold;vertical-align:top;">is_source</td><td style="vertical-align:top;">:</td><td><div>False</div></td></tr><tr><td style="font-weight:bold;vertical-align:top;">local_hosts</td><td style="vertical-align:top;">:</td><td><div><table><tr><td><div>TheBigBlack</div></td></tr><tr><td><div>fe80::c03:3868:5616:3daf%9</div></td></tr><tr><td><div>fe80::200:5efe:169.233.194.80%10</div></td></tr><tr><td><div>2001:0:9d38:6abd:c03:3868:5616:3daf</div></td></tr><tr><td><div>169.233.194.80</div></td></tr><tr><td><div>::ffff:127.0.0.1</div></td></tr><tr><td><div>::1</div></td></tr><tr><td><div>fe80::b894:a814:784e:dc72%3</div></td></tr><tr><td><div>2002:a9e9:c250::a9e9:c250</div></td></tr><tr><td><div>TheBigBlack.ucsc.edu</div></td></tr><tr><td><div>127.0.0.1</div></td></tr></table></div></td></tr><tr><td style="font-weight:bold;vertical-align:top;">path_info</td><td style="vertical-align:top;">:</td><td><div>/budz/default/addtutor</div></td></tr><tr><td style="font-weight:bold;vertical-align:top;">query_string</td><td style="vertical-align:top;">:</td><td><div></div></td></tr><tr><td style="font-weight:bold;vertical-align:top;">remote_addr</td><td style="vertical-align:top;">:</td><td><div>127.0.0.1</div></td></tr><tr><td style="font-weight:bold;vertical-align:top;">remote_port</td><td style="vertical-align:top;">:</td><td><div>58496</div></td></tr><tr><td style="font-weight:bold;vertical-align:top;">request_method</td><td style="vertical-align:top;">:</td><td><div>POST</div></td></tr><tr><td style="font-weight:bold;vertical-align:top;">request_uri</td><td style="vertical-align:top;">:</td><td><div>/budz/default/addtutor</div></td></tr><tr><td style="font-weight:bold;vertical-align:top;">script_name</td><td style="vertical-align:top;">:</td><td><div></div></td></tr><tr><td style="font-weight:bold;vertical-align:top;">server_name</td><td style="vertical-align:top;">:</td><td><div>TheBigBlack</div></td></tr><tr><td style="font-weight:bold;vertical-align:top;">server_port</td><td style="vertical-align:top;">:</td><td><div>8000</div></td></tr><tr><td style="font-weight:bold;vertical-align:top;">server_protocol</td><td style="vertical-align:top;">:</td><td><div>HTTP/1.1</div></td></tr><tr><td style="font-weight:bold;vertical-align:top;">server_software</td><td style="vertical-align:top;">:</td><td><div>Rocket 1.2.6</div></td></tr><tr><td style="font-weight:bold;vertical-align:top;">web2py_path</td><td style="vertical-align:top;">:</td><td><div>C:\\Users\\Chris\\Documents\\web2py</div></td></tr><tr><td style="font-weight:bold;vertical-align:top;">web2py_version</td><td style="vertical-align:top;">:</td><td><div>2.9.12-stable+timestamp.2015.01.17.06.11.03</div></td></tr><tr><td style="font-weight:bold;vertical-align:top;">wsgi.errors</td><td style="vertical-align:top;">:</td><td><div>&lt;open file &#x27;&lt;stderr&gt;&#x27;, mode &#x27;w&#x27; at 0x002C60D0&gt;</div></td></tr><tr><td style="font-weight:bold;vertical-align:top;">wsgi.file_wrapper</td><td style="vertical-align:top;">:</td><td><div>&lt;class wsgiref.util.FileWrapper at 0x02F940A0&gt;</div></td></tr><tr><td style="font-weight:bold;vertical-align:top;">wsgi.input</td><td style="vertical-align:top;">:</td><td><div>&lt;socket._fileobject object at 0x07A29DF0&gt;</div></td></tr><tr><td style="font-weight:bold;vertical-align:top;">wsgi.multiprocess</td><td style="vertical-align:top;">:</td><td><div>False</div></td></tr><tr><td style="font-weight:bold;vertical-align:top;">wsgi.multithread</td><td style="vertical-align:top;">:</td><td><div>True</div></td></tr><tr><td style="font-weight:bold;vertical-align:top;">wsgi.run_once</td><td style="vertical-align:top;">:</td><td><div>False</div></td></tr><tr><td style="font-weight:bold;vertical-align:top;">wsgi.url_scheme</td><td style="vertical-align:top;">:</td><td><div>http</div></td></tr><tr><td style="font-weight:bold;vertical-align:top;">wsgi.version</td><td style="vertical-align:top;">:</td><td><div><table><tr><td><div>1</div></td></tr><tr><td><div>0</div></td></tr></table></div></td></tr><tr><td style="font-weight:bold;vertical-align:top;">wsgi_errors</td><td style="vertical-align:top;">:</td><td><div>&lt;open file &#x27;&lt;stderr&gt;&#x27;, mode &#x27;w&#x27; at 0x002C60D0&gt;</div></td></tr><tr><td style="font-weight:bold;vertical-align:top;">wsgi_file_wrapper</td><td style="vertical-align:top;">:</td><td><div>&lt;class wsgiref.util.FileWrapper at 0x02F940A0&gt;</div></td></tr><tr><td style="font-weight:bold;vertical-align:top;">wsgi_input</td><td style="vertical-align:top;">:</td><td><div>&lt;socket._fileobject object at 0x07A29DF0&gt;</div></td></tr><tr><td style="font-weight:bold;vertical-align:top;">wsgi_multiprocess</td><td style="vertical-align:top;">:</td><td><div>False</div></td></tr><tr><td style="font-weight:bold;vertical-align:top;">wsgi_multithread</td><td style="vertical-align:top;">:</td><td><div>True</div></td></tr><tr><td style="font-weight:bold;vertical-align:top;">wsgi_run_once</td><td style="vertical-align:top;">:</td><td><div>False</div></td></tr><tr><td style="font-weight:bold;vertical-align:top;">wsgi_url_scheme</td><td style="vertical-align:top;">:</td><td><div>http</div></td></tr><tr><td style="font-weight:bold;vertical-align:top;">wsgi_version</td><td style="vertical-align:top;">:</td><td><div><table><tr><td><div>1</div></td></tr><tr><td><div>0</div></td></tr></table></div></td></tr></table></div></td></tr><tr><td style="font-weight:bold;vertical-align:top;">extension</td><td style="vertical-align:top;">:</td><td><div>html</div></td></tr><tr><td style="font-weight:bold;vertical-align:top;">folder</td><td style="vertical-align:top;">:</td><td><div>C:\\Users\\Chris\\Documents\\web2py\\applications\\budz\\</div></td></tr><tr><td style="font-weight:bold;vertical-align:top;">function</td><td style="vertical-align:top;">:</td><td><div>addtutor</div></td></tr><tr><td style="font-weight:bold;vertical-align:top;">global_settings</td><td style="vertical-align:top;">:</td><td><div><table><tr><td style="font-weight:bold;vertical-align:top;">app_folders</td><td style="vertical-align:top;">:</td><td><div>set([&#x27;C:\\\\Users\\\\Chris\\\\Documents\\\\web2py\\\\applications\\\\admin\\\\&#x27;, &#x27;C:\\\\Users\\\\Chris\\\\Documents\\\\web2py\\\\applications\\\\welcome\\\\&#x27;, &#x27;C:\\\\Users\\\\Chris\\\\Documents\\\\web2py\\\\applications\\\\budz\\\\&#x27;])</div></td></tr><tr><td style="font-weight:bold;vertical-align:top;">applications_parent</td><td style="vertical-align:top;">:</td><td><div>C:\\Users\\Chris\\Documents\\web2py</div></td></tr><tr><td style="font-weight:bold;vertical-align:top;">cmd_args</td><td style="vertical-align:top;">:</td><td><div><table></table></div></td></tr><tr><td style="font-weight:bold;vertical-align:top;">cmd_options</td><td style="vertical-align:top;">:</td><td><div>&lt;Values at 0x2f4cb20: {&#x27;verbose&#x27;: False, &#x27;ip&#x27;: &#x27;127.0.0.1&#x27;, &#x27;debuglevel&#x27;: 30, &#x27;with_scheduler&#x27;: False, &#x27;ips&#x27;: [], &#x27;shutdown_timeout&#x27;: 5, &#x27;taskbar&#x27;: False, &#x27;with_coverage&#x27;: False, &#x27;scheduler_groups&#x27;: None, &#x27;port&#x27;: 8000, &#x27;maxthreads&#x27;: None, &#x27;softcron&#x27;: False, &#x27;server_name&#x27;: &#x27;TheBigBlack&#x27;, &#x27;bpython&#x27;: False, &#x27;nogui&#x27;: False, &#x27;pid_filename&#x27;: &#x27;httpserver.pid&#x27;, &#x27;extcron&#x27;: False, &#x27;runcron&#x27;: False, &#x27;run_system_tests&#x27;: False, &#x27;test&#x27;: None, &#x27;folder&#x27;: &#x27;C:\\\\Users\\\\Chris\\\\Documents\\\\web2py&#x27;, &#x27;config&#x27;: &#x27;&#x27;, &#x27;minthreads&#x27;: None, &#x27;shell&#x27;: None, &#x27;run&#x27;: &#x27;&#x27;, &#x27;log_filename&#x27;: &#x27;httpserver.log&#x27;, &#x27;profiler_dir&#x27;: None, &#x27;args&#x27;: [&#x27;&#x27;], &#x27;socket_timeout&#x27;: 5, &#x27;ssl_ca_certificate&#x27;: None, &#x27;scheduler&#x27;: None, &#x27;interfaces&#x27;: None, &#x27;ssl_private_key&#x27;: &#x27;&#x27;, &#x27;gae&#x27;: None, &#x27;password&#x27;: &#x27;&lt;ask&gt;&#x27;, &#x27;request_queue_size&#x27;: 5, &#x27;ssl_certificate&#x27;: &#x27;&#x27;, &#x27;cronjob&#x27;: False, &#x27;numthreads&#x27;: None, &#x27;quiet&#x27;: False, &#x27;import_models&#x27;: False, &#x27;timeout&#x27;: 10, &#x27;plain&#x27;: False, &#x27;nobanner&#x27;: False}&gt;</div></td></tr><tr><td style="font-weight:bold;vertical-align:top;">db_sessions</td><td style="vertical-align:top;">:</td><td><div>set([])</div></td></tr><tr><td style="font-weight:bold;vertical-align:top;">debugging</td><td style="vertical-align:top;">:</td><td><div>False</div></td></tr><tr><td style="font-weight:bold;vertical-align:top;">gluon_parent</td><td style="vertical-align:top;">:</td><td><div>C:\\Users\\Chris\\Documents\\web2py</div></td></tr><tr><td style="font-weight:bold;vertical-align:top;">is_jython</td><td style="vertical-align:top;">:</td><td><div>False</div></td></tr><tr><td style="font-weight:bold;vertical-align:top;">is_pypy</td><td style="vertical-align:top;">:</td><td><div>False</div></td></tr><tr><td style="font-weight:bold;vertical-align:top;">is_source</td><td style="vertical-align:top;">:</td><td><div>False</div></td></tr><tr><td style="font-weight:bold;vertical-align:top;">local_hosts</td><td style="vertical-align:top;">:</td><td><div><table><tr><td><div>TheBigBlack</div></td></tr><tr><td><div>fe80::c03:3868:5616:3daf%9</div></td></tr><tr><td><div>fe80::200:5efe:169.233.194.80%10</div></td></tr><tr><td><div>2001:0:9d38:6abd:c03:3868:5616:3daf</div></td></tr><tr><td><div>169.233.194.80</div></td></tr><tr><td><div>::ffff:127.0.0.1</div></td></tr><tr><td><div>::1</div></td></tr><tr><td><div>fe80::b894:a814:784e:dc72%3</div></td></tr><tr><td><div>2002:a9e9:c250::a9e9:c250</div></td></tr><tr><td><div>TheBigBlack.ucsc.edu</div></td></tr><tr><td><div>127.0.0.1</div></td></tr></table></div></td></tr><tr><td style="font-weight:bold;vertical-align:top;">web2py_version</td><td style="vertical-align:top;">:</td><td><div>2.9.12-stable+timestamp.2015.01.17.06.11.03</div></td></tr></table></div></td></tr><tr><td style="font-weight:bold;vertical-align:top;">is_https</td><td style="vertical-align:top;">:</td><td><div>False</div></td></tr><tr><td style="font-weight:bold;vertical-align:top;">is_local</td><td style="vertical-align:top;">:</td><td><div>True</div></td></tr><tr><td style="font-weight:bold;vertical-align:top;">is_restful</td><td style="vertical-align:top;">:</td><td><div>False</div></td></tr><tr><td style="font-weight:bold;vertical-align:top;">is_sheduler</td><td style="vertical-align:top;">:</td><td><div>None</div></td></tr><tr><td style="font-weight:bold;vertical-align:top;">is_shell</td><td style="vertical-align:top;">:</td><td><div>None</div></td></tr><tr><td style="font-weight:bold;vertical-align:top;">now</td><td style="vertical-align:top;">:</td><td><div>datetime.datetime(2015, 3, 15, 23, 30, 50, 259000)</div></td></tr><tr><td style="font-weight:bold;vertical-align:top;">raw_args</td><td style="vertical-align:top;">:</td><td><div></div></td></tr><tr><td style="font-weight:bold;vertical-align:top;">raw_extension</td><td style="vertical-align:top;">:</td><td><div>None</div></td></tr><tr><td style="font-weight:bold;vertical-align:top;">url</td><td style="vertical-align:top;">:</td><td><div>/budz/default/addtutor</div></td></tr><tr><td style="font-weight:bold;vertical-align:top;">utcnow</td><td style="vertical-align:top;">:</td><td><div>datetime.datetime(2015, 3, 16, 6, 30, 50, 259000)</div></td></tr><tr><td style="font-weight:bold;vertical-align:top;">uuid</td><td style="vertical-align:top;">:</td><td><div>budz/127.0.0.1.2015-03-15.23-30-50.11655f96-2bce-45a1-8d16-270f550642c0</div></td></tr><tr><td style="font-weight:bold;vertical-align:top;">wsgi</td><td style="vertical-align:top;">:</td><td><div>&lt;gluon.main.LazyWSGI object at 0x08666670&gt;</div></td></tr></table></div>'
tRp70
sS'frames'
p71
(lp72
(dp73
S'file'
p74
S'C:\\Users\\Chris\\Documents\\web2py\\gluon\\restricted.py'
p75
sS'dump'
p76
(dp77
sS'lnum'
p78
I224
sS'lines'
p79
(dp80
sS'call'
p81
S"(code='# -*- coding: utf-8 -*-\\n# this file is released ...ules)\\n\\nresponse._vars=response._caller(addtutor)\\n', environment={'A': <class 'gluon.html.A'>, 'ANY_OF': <class 'gluon.validators.ANY_OF'>, 'ASSIGNJS': <function ASSIGNJS>, 'Auth': <class 'gluon.tools.Auth'>, 'B': <class 'gluon.html.B'>, 'BEAUTIFY': <class 'gluon.html.BEAUTIFY'>, 'BODY': <class 'gluon.html.BODY'>, 'BR': <class 'gluon.html.BR'>, 'BUTTON': <class 'gluon.html.BUTTON'>, 'CAT': <class 'gluon.html.CAT'>, ...}, layer=r'C:\\Users\\Chris\\Documents\\web2py\\applications\\budz\\controllers/default.py')"
p82
sS'func'
p83
S'restricted'
p84
sa(dp85
g74
S'C:\\Users\\Chris\\Documents\\web2py\\applications\\budz\\controllers\\default.py'
p86
sg76
(dp87
sg78
I242
sg79
(dp88
I231
S'def api():'
p89
sI232
S'    """'
p90
sI233
S'    this is example of API with access control'
p91
sI234
S'    WEB2PY provides Hypermedia API (Collection+JSON) Experimental'
p92
sI235
S'    """'
p93
sI236
S'    from gluon.contrib.hypermedia import Collection'
p94
sI237
S'    rules = {'
p95
sI238
S"        '<tablename>': {'GET':{},'POST':{},'PUT':{},'DELETE':{}},"
p96
sI239
S'        }'
p97
sI240
S'    return Collection(db).process(request,response,rules)'
p98
ssg81
S'()'
p99
sg83
S'<module>'
p100
sa(dp101
g74
S'C:\\Users\\Chris\\Documents\\web2py\\gluon\\globals.py'
p102
sg76
(dp103
sg78
I393
sg79
(dp104
sg81
S'(f=<function addtutor>)'
p105
sg83
S'<lambda>'
p106
sa(dp107
g74
S'C:\\Users\\Chris\\Documents\\web2py\\applications\\budz\\controllers\\default.py'
p108
sg76
(dp109
S'auth.user'
p110
S"<Row {'rating': 'h', 'major': None, 'last_name':... 'h', 'date_created': None, 'studentpost': None}>"
p111
sS'tutor'
p112
S'undefined'
p113
sS'auth.user.insert'
p114
g113
sS'builtinTrue'
p115
S'True'
p116
sS'global auth'
p117
S'<gluon.tools.Auth object>'
p118
ssg78
I137
sg79
(dp119
I132
S''
sI133
S'    if form.process().accepted:'
p120
sI134
S"        tutName = auth.user.first_name+'_'+auth.user.last_name[0]"
p121
sI135
S"        fancyName = auth.user.first_name+' '+auth.user.last_name[0]+'.'"
p122
sI136
S'        auth.user.tutor=True'
p123
sI137
S'        db.auth_user.insert(tutor=True)'
p124
sI138
S'        db.profile.insert(name=tutName, nice_name=fancyName, date_created=datetime.utcnow(), body=form.vars.body,'
p125
sI139
S'                          major=form.vars.major,college=form.vars.college,student_status=form.vars.student_status,'
p126
sI140
S'                          subject1=form.vars.subject1, subject2=form.vars.subject2, subject3=form.vars.subject3,'
p127
sI141
S'                          price=form.vars.price, picture=auth.user.picture )'
p128
ssg81
S'()'
p129
sg83
S'addtutor'
p130
sa(dp131
g74
S'C:\\Users\\Chris\\Documents\\web2py\\gluon\\dal\\objects.py'
p132
sg76
(dp133
sg78
I724
sg79
(dp134
sg81
S"(self=<Table auth_user (id,first_name,last_name,email,...ct2,subject3,price,rating,tutorpost,studentpost)>, **fields={'tutor': True})"
p135
sg83
S'insert'
p136
sa(dp137
g74
S'C:\\Users\\Chris\\Documents\\web2py\\gluon\\dal\\objects.py'
p138
sg76
(dp139
sg78
I644
sg79
(dp140
sg81
S"(self=<Table auth_user (id,first_name,last_name,email,...ct2,subject3,price,rating,tutorpost,studentpost)>, fields={'tutor': True}, update=False)"
p141
sg83
S'_listify'
p142
sasS'pyver'
p143
S'Python 2.7.6: C:\\Users\\Chris\\Documents\\web2py\\web2py.exe (prefix: C:\\Users\\Chris\\Anaconda)'
p144
sS'session'
p145
g69
(S'sH\x14\x00\x00<div><table><tr><td style="font-weight:bold;vertical-align:top;">auth</td><td style="vertical-align:top;">:</td><td><div><table><tr><td style="font-weight:bold;vertical-align:top;">expiration</td><td style="vertical-align:top;">:</td><td><div>3600</div></td></tr><tr><td style="font-weight:bold;vertical-align:top;">hmac_key</td><td style="vertical-align:top;">:</td><td><div>c0d0cdc1-53f7-42e7-b872-0a58153a7960</div></td></tr><tr><td style="font-weight:bold;vertical-align:top;">last_visit</td><td style="vertical-align:top;">:</td><td><div>datetime.datetime(2015, 3, 15, 23, 30, 18, 354000)</div></td></tr><tr><td style="font-weight:bold;vertical-align:top;">remember_me</td><td style="vertical-align:top;">:</td><td><div>False</div></td></tr><tr><td style="font-weight:bold;vertical-align:top;">user</td><td style="vertical-align:top;">:</td><td><div><table><tr><td style="font-weight:bold;vertical-align:top;">bio</td><td style="vertical-align:top;">:</td><td><div>I have experience with most of the Cabrillo College teachers and their methods, test styles, and other advantages I can pass on to students. I&#x27;ve successfully tutored four students through a Chem 1B course. I&#x27;m currently attending UCSC and have done well almost every biology and chemistry course given at Cabrillo College. I plan on attending medical school, so I have taken the anatomy and physiology courses offered at Cabrillo for the allied health programs. I&#x27;ve been a teaching assistant in the anatomy lab as well, where I discovered that I love teaching and helping students succeed in their academic goals. I have been a successful tutor through WyzAnt for one year now.</div></td></tr><tr><td style="font-weight:bold;vertical-align:top;">bio2</td><td style="vertical-align:top;">:</td><td><div>None</div></td></tr><tr><td style="font-weight:bold;vertical-align:top;">college</td><td style="vertical-align:top;">:</td><td><div>c8</div></td></tr><tr><td style="font-weight:bold;vertical-align:top;">date_created</td><td style="vertical-align:top;">:</td><td><div>None</div></td></tr><tr><td style="font-weight:bold;vertical-align:top;">email</td><td style="vertical-align:top;">:</td><td><div>cjegan@ucsc.edu</div></td></tr><tr><td style="font-weight:bold;vertical-align:top;">first_name</td><td style="vertical-align:top;">:</td><td><div>Christopher</div></td></tr><tr><td style="font-weight:bold;vertical-align:top;">gender</td><td style="vertical-align:top;">:</td><td><div>None</div></td></tr><tr><td style="font-weight:bold;vertical-align:top;">id</td><td style="vertical-align:top;">:</td><td><div>1L</div></td></tr><tr><td style="font-weight:bold;vertical-align:top;">last_name</td><td style="vertical-align:top;">:</td><td><div>Egan</div></td></tr><tr><td style="font-weight:bold;vertical-align:top;">major</td><td style="vertical-align:top;">:</td><td><div>None</div></td></tr><tr><td style="font-weight:bold;vertical-align:top;">picture</td><td style="vertical-align:top;">:</td><td><div>auth_user.picture.962aa6c765a1e9ca.69636f6e2d796f67612e6a7067.jpg</div></td></tr><tr><td style="font-weight:bold;vertical-align:top;">price</td><td style="vertical-align:top;">:</td><td><div>5</div></td></tr><tr><td style="font-weight:bold;vertical-align:top;">rating</td><td style="vertical-align:top;">:</td><td><div>h</div></td></tr><tr><td style="font-weight:bold;vertical-align:top;">registration_id</td><td style="vertical-align:top;">:</td><td><div>https://www.google.com/profiles/116864008576033700263</div></td></tr><tr><td style="font-weight:bold;vertical-align:top;">registration_key</td><td style="vertical-align:top;">:</td><td><div></div></td></tr><tr><td style="font-weight:bold;vertical-align:top;">reset_password_key</td><td style="vertical-align:top;">:</td><td><div></div></td></tr><tr><td style="font-weight:bold;vertical-align:top;">student_status</td><td style="vertical-align:top;">:</td><td><div>freshman</div></td></tr><tr><td style="font-weight:bold;vertical-align:top;">studentpost</td><td style="vertical-align:top;">:</td><td><div>None</div></td></tr><tr><td style="font-weight:bold;vertical-align:top;">subject1</td><td style="vertical-align:top;">:</td><td><div>h</div></td></tr><tr><td style="font-weight:bold;vertical-align:top;">subject2</td><td style="vertical-align:top;">:</td><td><div>h</div></td></tr><tr><td style="font-weight:bold;vertical-align:top;">subject3</td><td style="vertical-align:top;">:</td><td><div>h</div></td></tr><tr><td style="font-weight:bold;vertical-align:top;">tutor</td><td style="vertical-align:top;">:</td><td><div>True</div></td></tr><tr><td style="font-weight:bold;vertical-align:top;">tutorpost</td><td style="vertical-align:top;">:</td><td><div>None</div></td></tr></table></div></td></tr><tr><td style="font-weight:bold;vertical-align:top;">user_groups</td><td style="vertical-align:top;">:</td><td><div><table><tr><td style="font-weight:bold;vertical-align:top;">1</td><td style="vertical-align:top;">:</td><td><div>user_1</div></td></tr></table></div></td></tr></table></div></td></tr><tr><td style="font-weight:bold;vertical-align:top;">flash</td><td style="vertical-align:top;">:</td><td><div>None</div></td></tr></table></div>'
tRp146
sS'etype'
p147
S"<type 'exceptions.SyntaxError'>"
p148
sS'date'
p149
S'Sun Mar 15 23:30:50 2015'
p150
sS'response'
p151
g69
(S'sP#\x00\x00<div><table><tr><td style="font-weight:bold;vertical-align:top;">body</td><td style="vertical-align:top;">:</td><td><div>&lt;cStringIO.StringO object at 0x079F4C00&gt;</div></td></tr><tr><td style="font-weight:bold;vertical-align:top;">cookies</td><td style="vertical-align:top;">:</td><td><div><table><tr><td style="font-weight:bold;vertical-align:top;">session_id_budz</td><td style="vertical-align:top;">:</td><td><div>127.0.0.1-c91786e8-0c51-4a9a-a075-2b058ba78917<table><tr><td style="font-weight:bold;vertical-align:top;">comment</td><td style="vertical-align:top;">:</td><td><div></div></td></tr><tr><td style="font-weight:bold;vertical-align:top;">domain</td><td style="vertical-align:top;">:</td><td><div></div></td></tr><tr><td style="font-weight:bold;vertical-align:top;">expires</td><td style="vertical-align:top;">:</td><td><div></div></td></tr><tr><td style="font-weight:bold;vertical-align:top;">httponly</td><td style="vertical-align:top;">:</td><td><div></div></td></tr><tr><td style="font-weight:bold;vertical-align:top;">max-age</td><td style="vertical-align:top;">:</td><td><div></div></td></tr><tr><td style="font-weight:bold;vertical-align:top;">path</td><td style="vertical-align:top;">:</td><td><div>/</div></td></tr><tr><td style="font-weight:bold;vertical-align:top;">secure</td><td style="vertical-align:top;">:</td><td><div></div></td></tr><tr><td style="font-weight:bold;vertical-align:top;">version</td><td style="vertical-align:top;">:</td><td><div></div></td></tr></table></div></td></tr></table></div></td></tr><tr><td style="font-weight:bold;vertical-align:top;">delimiters</td><td style="vertical-align:top;">:</td><td><div><table><tr><td><div>{{</div></td></tr><tr><td><div>}}</div></td></tr></table></div></td></tr><tr><td style="font-weight:bold;vertical-align:top;">files</td><td style="vertical-align:top;">:</td><td><div><table></table></div></td></tr><tr><td style="font-weight:bold;vertical-align:top;">flash</td><td style="vertical-align:top;">:</td><td><div>Success!</div></td></tr><tr><td style="font-weight:bold;vertical-align:top;">form_label_separator</td><td style="vertical-align:top;">:</td><td><div>: </div></td></tr><tr><td style="font-weight:bold;vertical-align:top;">formstyle</td><td style="vertical-align:top;">:</td><td><div>table3cols</div></td></tr><tr><td style="font-weight:bold;vertical-align:top;">generic_patterns</td><td style="vertical-align:top;">:</td><td><div><table><tr><td><div>*</div></td></tr></table></div></td></tr><tr><td style="font-weight:bold;vertical-align:top;">google_analytics_id</td><td style="vertical-align:top;">:</td><td><div>None</div></td></tr><tr><td style="font-weight:bold;vertical-align:top;">headers</td><td style="vertical-align:top;">:</td><td><div><table><tr><td style="font-weight:bold;vertical-align:top;">X-Powered-By</td><td style="vertical-align:top;">:</td><td><div>web2py</div></td></tr></table></div></td></tr><tr><td style="font-weight:bold;vertical-align:top;">logo</td><td style="vertical-align:top;">:</td><td><div><a class="brand" href="/budz/default/index"><b>BrainyApe</b>&trade;&nbsp;</a></div></td></tr><tr><td style="font-weight:bold;vertical-align:top;">menu</td><td style="vertical-align:top;">:</td><td><div><table><tr><td><div><table><tr><td><div>Home</div></td></tr><tr><td><div>False</div></td></tr><tr><td><div>/budz/default/index</div></td></tr><tr><td><div><table></table></div></td></tr></table></div></td></tr><tr><td><div><table><tr><td><div><span class="highlighted">Tutors</span></div></td></tr><tr><td><div>False</div></td></tr><tr><td><div>/budz/default/tutorposts</div></td></tr><tr><td><div><table><tr><td><div><table><tr><td><div>View Listing of Students</div></td></tr><tr><td><div>False</div></td></tr><tr><td><div>/budz/default/studentposts</div></td></tr></table></div></td></tr><tr><td><div><table><tr><td><div>Add Post to Tutor List</div></td></tr><tr><td><div>False</div></td></tr><tr><td><div>/budz/default/addtutor</div></td></tr></table></div></td></tr><tr><td><div><table><tr><td><div>Tutor Training</div></td></tr><tr><td><div>False</div></td></tr><tr><td><div>/budz/default/default/TutorHelper.pdf</div></td></tr></table></div></td></tr></table></div></td></tr></table></div></td></tr><tr><td><div><table><tr><td><div><span class="highlighted">Students</span></div></td></tr><tr><td><div>False</div></td></tr><tr><td><div>/budz/default/studentposts</div></td></tr><tr><td><div><table><tr><td><div><table><tr><td><div>View Listing of Tutors</div></td></tr><tr><td><div>False</div></td></tr><tr><td><div>/budz/default/tutorposts</div></td></tr></table></div></td></tr><tr><td><div><table><tr><td><div>Add Post to Student List</div></td></tr><tr><td><div>False</div></td></tr><tr><td><div>/budz/default/addstudent</div></td></tr></table></div></td></tr></table></div></td></tr></table></div></td></tr><tr><td><div><table><tr><td><div><span class="highlighted">Profile</span></div></td></tr><tr><td><div>False</div></td></tr><tr><td><div>/budz/default/profile/Christopher_E</div></td></tr></table></div></td></tr></table></div></td></tr><tr><td style="font-weight:bold;vertical-align:top;">meta</td><td style="vertical-align:top;">:</td><td><div><table><tr><td style="font-weight:bold;vertical-align:top;">author</td><td style="vertical-align:top;">:</td><td><div>Your Name &lt;you@example.com&gt;</div></td></tr><tr><td style="font-weight:bold;vertical-align:top;">generator</td><td style="vertical-align:top;">:</td><td><div>Web2py Web Framework</div></td></tr><tr><td style="font-weight:bold;vertical-align:top;">keywords</td><td style="vertical-align:top;">:</td><td><div>web2py, python, framework</div></td></tr></table></div></td></tr><tr><td style="font-weight:bold;vertical-align:top;">models_to_run</td><td style="vertical-align:top;">:</td><td><div><table><tr><td><div>^\\w+\\.py$</div></td></tr><tr><td><div>^default/\\w+\\.py$</div></td></tr><tr><td><div>^default/addtutor/\\w+\\.py$</div></td></tr></table></div></td></tr><tr><td style="font-weight:bold;vertical-align:top;">postprocessing</td><td style="vertical-align:top;">:</td><td><div><table></table></div></td></tr><tr><td style="font-weight:bold;vertical-align:top;">session_client</td><td style="vertical-align:top;">:</td><td><div>127.0.0.1</div></td></tr><tr><td style="font-weight:bold;vertical-align:top;">session_cookie_compression_level</td><td style="vertical-align:top;">:</td><td><div>None</div></td></tr><tr><td style="font-weight:bold;vertical-align:top;">session_cookie_expires</td><td style="vertical-align:top;">:</td><td><div>None</div></td></tr><tr><td style="font-weight:bold;vertical-align:top;">session_cookie_key</td><td style="vertical-align:top;">:</td><td><div>None</div></td></tr><tr><td style="font-weight:bold;vertical-align:top;">session_data_name</td><td style="vertical-align:top;">:</td><td><div>session_data_budz</div></td></tr><tr><td style="font-weight:bold;vertical-align:top;">session_file</td><td style="vertical-align:top;">:</td><td><div>&lt;open file &#x27;C:\\\\Users\\\\Chris\\\\Documents\\\\web2py\\\\applications\\\\budz\\\\sessions\\\\0e2\\\\1e3\\\\127.0.0.1-c91786e8-0c51-4a9a-a075-2b058ba78917&#x27;, mode &#x27;rb+&#x27; at 0x070F2F40&gt;</div></td></tr><tr><td style="font-weight:bold;vertical-align:top;">session_filename</td><td style="vertical-align:top;">:</td><td><div>C:\\Users\\Chris\\Documents\\web2py\\applications\\budz\\sessions\\127.0.0.1-c91786e8-0c51-4a9a-a075-2b058ba78917</div></td></tr><tr><td style="font-weight:bold;vertical-align:top;">session_hash</td><td style="vertical-align:top;">:</td><td><div>30747d67f844dd2a3a7ed1d26ea5d6c4</div></td></tr><tr><td style="font-weight:bold;vertical-align:top;">session_id</td><td style="vertical-align:top;">:</td><td><div>127.0.0.1-c91786e8-0c51-4a9a-a075-2b058ba78917</div></td></tr><tr><td style="font-weight:bold;vertical-align:top;">session_id_name</td><td style="vertical-align:top;">:</td><td><div>session_id_budz</div></td></tr><tr><td style="font-weight:bold;vertical-align:top;">session_locked</td><td style="vertical-align:top;">:</td><td><div>True</div></td></tr><tr><td style="font-weight:bold;vertical-align:top;">session_masterapp</td><td style="vertical-align:top;">:</td><td><div>budz</div></td></tr><tr><td style="font-weight:bold;vertical-align:top;">session_new</td><td style="vertical-align:top;">:</td><td><div>False</div></td></tr><tr><td style="font-weight:bold;vertical-align:top;">session_storage_type</td><td style="vertical-align:top;">:</td><td><div>file</div></td></tr><tr><td style="font-weight:bold;vertical-align:top;">status</td><td style="vertical-align:top;">:</td><td><div>200</div></td></tr><tr><td style="font-weight:bold;vertical-align:top;">subtitle</td><td style="vertical-align:top;">:</td><td><div></div></td></tr><tr><td style="font-weight:bold;vertical-align:top;">title</td><td style="vertical-align:top;">:</td><td><div>Budz</div></td></tr><tr><td style="font-weight:bold;vertical-align:top;">view</td><td style="vertical-align:top;">:</td><td><div>default/addtutor.html</div></td></tr></table></div>'
tRp152
sS'locals'
p153
(dp154
S'fields'
p155
S"{'tutor': True}"
p156
sS'self'
p157
S'<Table auth_user (id,first_name,last_name,email,...ct2,subject3,price,rating,tutorpost,studentpost)>'
p158
sS'new_fields'
p159
g21
sS'name'
p160
S"'tutor'"
p161
sS'update'
p162
S'False'
p163
sssS'traceback'
p164
S'Traceback (most recent call last):\n  File "gluon/restricted.py", line 224, in restricted\n  File "C:\\Users\\Chris\\Documents\\web2py\\applications\\budz\\controllers/default.py", line 242, in <module>\n  File "gluon/globals.py", line 393, in <lambda>\n  File "C:\\Users\\Chris\\Documents\\web2py\\applications\\budz\\controllers/default.py", line 137, in addtutor\n    db.auth_user.insert(tutor=True)\n  File "gluon/dal/objects.py", line 724, in insert\n  File "gluon/dal/objects.py", line 644, in _listify\nSyntaxError: Field tutor does not belong to the table\n'
p165
s.